(dp0
VVampires Suck
p1
(VFox
p2
V$36,661,504
p3
V8/18/10
p4
tp5
sVThe Great Flood
p6
(VIcar.
p7
V$16,506
p8
V1/8/14
p9
tp10
sVLife of Pi
p11
(VFox
p12
V$124,987,023
p13
V11/21/12
p14
tp15
sVThe Crazies
p16
(VOver.
p17
V$39,123,589
p18
V2/26/10
p19
tp20
sVCinco De Mayo: La Batalla
p21
(VLGF
p22
V$173,472
p23
V5/3/13
p24
tp25
sVUnderdogs
p26
(VFree
p27
V$35,271
p28
V8/16/13
p29
tp30
sVGrace Unplugged
p31
(VRAtt.
p32
V$2,507,201
p33
V10/4/13
p34
tp35
sVBegin Again
p36
(VWein.
p37
V$16,170,632
p38
V6/27/14
p39
tp40
sVBatkid Begins
p41
(VWB
p42
V$52,390
p43
V6/26/15
p44
tp45
sVNo Good Deed (2014)
p46
(VSGem
p47
V$52,543,632
p48
V9/12/14
p49
tp50
sVAn Honest Liar
p51
(VAbr.
p52
V$180,590
p53
V3/6/15
p54
tp55
sVLockout
p56
(VFD
p57
V$14,326,864
p58
V4/13/12
p59
tp60
sVTitanic 3D
p61
(VPar.
p62
V$57,884,114
p63
V4/4/12
p64
tp65
sVSingin' In the Rain (2012 re-release)
p66
(VWB
p67
V$1,608,925
p68
V7/12/12
p69
tp70
sVHarry Potter and the Deathly Hallows Part 1
p71
(VWB
p72
V$295,983,305
p73
V11/19/10
p74
tp75
sVThe Muppets
p76
(VBV
p77
V$88,631,237
p78
V11/23/11
p79
tp80
sVTonight You're Mine
p81
(VRAtt.
p82
V$6,255
p83
V5/11/12
p84
tp85
sVWhile We're Young
p86
(VA24
p87
V$7,587,485
p88
V3/27/15
p89
tp90
sVThe Graduate: 45th Anniversary Reunion
p91
(VRialto
p92
V$43,466
p93
V4/11/12
p94
tp95
sVMake Your Move
p96
(VHTR
p97
V$125,106
p98
V4/18/14
p99
tp100
sVPaul
p101
(VUni.
p102
V$37,412,945
p103
V3/18/11
p104
tp105
sVLee Daniels' The Butler
p106
(VWein.
p107
V$116,632,095
p108
V8/16/13
p109
tp110
sVMunger Road
p111
(VFree
p112
V$266,689
p113
V9/30/11
p114
tp115
sVJack Reacher
p116
(VPar.
p117
V$80,070,736
p118
V12/21/12
p119
tp120
sVThe Virginity Hit
p121
(VSony
p122
V$636,706
p123
V9/24/10
p124
tp125
sVMr. Pip
p126
(VFree
p127
V$1,714
p128
V11/7/14
p129
tp130
sVDown the Shore
p131
(VAnch.
p132
V$6,558
p133
V4/5/13
p134
tp135
sVJinn
p136
(VFree
p137
V$202,348
p138
V4/4/14
p139
tp140
sVKon-Tiki
p141
(VWein.
p142
V$1,517,410
p143
V4/26/13
p144
tp145
sVMiddle Men
p146
(VParV
p147
V$754,301
p148
V8/6/10
p149
tp150
sVThe Tourist
p151
(VSony
p152
V$67,631,157
p153
V12/10/10
p154
tp155
sVLetters to God
p156
(VViv.
p157
V$2,848,578
p158
V4/9/10
p159
tp160
sVThe Amazing Spider-Man
p161
(VSony
p162
V$262,030,663
p163
V7/3/12
p164
tp165
sVBrooklyn's Finest
p166
(VOver.
p167
V$27,163,593
p168
V3/5/10
p169
tp170
sVHamari Adhuri Kahani
p171
(VFIP
p172
V$235,361
p173
V6/12/15
p174
tp175
sVElsa & Fred (2014)
p176
(VMNE
p177
V$285,863
p178
V11/7/14
p179
tp180
sVAttack the Block
p181
(VSGem
p182
V$1,024,175
p183
V7/29/11
p184
tp185
sVDanny Collins
p186
(VBST
p187
V$5,637,066
p188
V3/20/15
p189
tp190
sVMan of Steel
p191
(VWB
p192
V$291,045,518
p193
V6/14/13
p194
tp195
sVLegion (2010)
p196
(VSGem
p197
V$40,168,080
p198
V1/22/10
p199
tp200
sVReal Steel
p201
(VBV
p202
V$85,468,508
p203
V10/7/11
p204
tp205
sVAddicted
p206
(VLGF
p207
V$17,390,770
p208
V10/10/14
p209
tp210
sVThe Signal (2014)
p211
(VFocus
p212
V$600,896
p213
V6/13/14
p214
tp215
sVLittle Fockers
p216
(VUni.
p217
V$148,438,600
p218
V12/22/10
p219
tp220
sVCaptain America: The First Avenger
p221
(VPar.
p222
V$176,654,505
p223
V7/22/11
p224
tp225
sVGimme Shelter
p226
(VRAtt.
p227
V$1,359,910
p228
V1/24/14
p229
tp230
sVAlexander and the Terrible, Horrible, No Good, Very Bad Day
p231
(VBV
p232
V$66,954,149
p233
V10/10/14
p234
tp235
sVThe Wizard of Oz (3D/IMAX)
p236
(VWB
p237
V$5,633,202
p238
V9/20/13
p239
tp240
sVSunshine Superman
p241
(VMagn.
p242
V$80,898
p243
V5/22/15
p244
tp245
sVYou're Next
p246
(VLGF
p247
V$18,494,006
p248
V8/23/13
p249
tp250
sVThe Imitation Game
p251
(VWein.
p252
V$91,125,683
p253
V11/28/14
p254
tp255
sVYou're Not You
p256
(VEOne
p257
V$11,486
p258
V10/10/14
p259
tp260
sVThis is the End
p261
(VSony
p262
V$101,470,202
p263
V6/12/13
p264
tp265
sVEpic
p266
(VFox
p267
V$107,518,682
p268
V5/24/13
p269
tp270
sVGlee The 3D Concert Movie
p271
(VFox
p272
V$11,862,398
p273
V8/12/11
p274
tp275
sVWhere Hope Grows
p276
(VRAtt.
p277
V$1,156,000
p278
V5/15/15
p279
tp280
sVOne Direction: This is Us
p281
(VTriS
p282
V$28,873,374
p283
V8/30/13
p284
tp285
sVKillers
p286
(VLGF
p287
V$47,059,963
p288
V6/4/10
p289
tp290
sVSimon and the Oaks
p291
(VTFA
p292
V$150,664
p293
V10/12/12
p294
tp295
sVSelf/Less
p296
(VFocus
p297
V$6,023,414
p298
V7/10/15
p299
tp300
sVGreenberg
p301
(VFocus
p302
V$4,234,170
p303
V3/19/10
p304
tp305
sVMy Old Lady
p306
(VCohen
p307
V$4,013,786
p308
V9/10/14
p309
tp310
sVOculus
p311
(VRela.
p312
V$27,695,246
p313
V4/11/14
p314
tp315
sVThat Awkward Moment
p316
(VFocus
p317
V$26,068,955
p318
V1/31/14
p319
tp320
sVA.C.O.D.
p321
(VTFA
p322
V$175,705
p323
V10/4/13
p324
tp325
sVThe Last Godfather
p326
(VRAtt.
p327
V$164,247
p328
V4/1/11
p329
tp330
sVBlood Ties (2014)
p331
(VRAtt.
p332
V$42,472
p333
V3/21/14
p334
tp335
sVThe Heat
p336
(VFox
p337
V$159,582,188
p338
V6/28/13
p339
tp340
sVThe Campaign
p341
(VWB
p342
V$86,907,746
p343
V8/10/12
p344
tp345
sVTwice Born
p346
(VEOne
p347
V$18,295
p348
V12/6/13
p349
tp350
sVHow to Train Your Dragon 2
p351
(VFox
p352
V$177,002,924
p353
V6/13/14
p354
tp355
sVIron Man 2
p356
(VPar.
p357
V$312,433,331
p358
V5/7/10
p359
tp360
sVIron Man 3
p361
(VBV
p362
V$409,013,994
p363
V5/3/13
p364
tp365
sVToy Story 3
p366
(VBV
p367
V$415,004,880
p368
V6/18/10
p369
tp370
sVHaute Cuisine
p371
(VWein.
p372
V$217,883
p373
V9/20/13
p374
tp375
sVLa Soga
p376
(V7-57
p377
V$210,625
p378
V8/13/10
p379
tp380
sVSuper 8
p381
(VPar.
p382
V$127,004,179
p383
V6/10/11
p384
tp385
sVRamona and Beezus
p386
(VFox
p387
V$26,167,002
p388
V7/23/10
p389
tp390
sVThe LEGO Movie
p391
(VWB
p392
V$257,760,692
p393
V2/7/14
p394
tp395
sVThe Adventurer: The Curse of the Midas Box
p396
(VTFA
p397
V$6,399
p398
V1/10/14
p399
tp400
sVEarth to Echo
p401
(VRela.
p402
V$38,934,842
p403
V7/2/14
p404
tp405
sVGod's Not Dead
p406
(VFree
p407
V$60,755,732
p408
V3/21/14
p409
tp410
sVI, Frankenstein
p411
(VLGF
p412
V$19,075,290
p413
V1/24/14
p414
tp415
sVSex and the City 2
p416
(VWB (NL)
p417
V$95,347,692
p418
V5/27/10
p419
tp420
sVThe Twilight Saga: Eclipse
p421
(VSum.
p422
V$300,531,751
p423
V6/30/10
p424
tp425
sVWe're the Millers
p426
(VWB
p427
V$150,394,119
p428
V8/7/13
p429
tp430
sVTangerines
p431
(VGold.
p432
V$144,501
p433
V4/17/15
p434
tp435
sVJupiter Ascending
p436
(VWB
p437
V$47,387,723
p438
V2/6/15
p439
tp440
sVEnough Said
p441
(VFoxS
p442
V$17,550,872
p443
V9/18/13
p444
tp445
sVWinnie Mandela
p446
(VImag.
p447
V$80,634
p448
V9/6/13
p449
tp450
sVThe Romantics
p451
(VFOAK
p452
V$106,524
p453
V9/10/10
p454
tp455
sVRise of the Planet of the Apes
p456
(VFox
p457
V$176,760,185
p458
V8/5/11
p459
tp460
sVBad Words
p461
(VFocus
p462
V$7,779,614
p463
V3/14/14
p464
tp465
sVGuzaarish
p466
(VUTV
p467
V$1,017,335
p468
V11/19/10
p469
tp470
sVRush (2013)
p471
(VUni.
p472
V$26,947,624
p473
V9/20/13
p474
tp475
sVBreathless (2010 re-issue)
p476
(VRialto
p477
V$363,031
p478
V5/28/10
p479
tp480
sVThe Good Lie
p481
(VWB
p482
V$2,722,209
p483
V10/3/14
p484
tp485
sVScream 4
p486
(VW/Dim.
p487
V$38,180,928
p488
V4/15/11
p489
tp490
sVTomorrow When the War Began
p491
(VFree
p492
V$4,936
p493
V2/24/12
p494
tp495
sVAnimals (2015)
p496
(VOsci.
p497
V$21,821
p498
V5/15/15
p499
tp500
sVSafety Not Guaranteed
p501
(VFD
p502
V$4,010,957
p503
V6/8/12
p504
tp505
sVStraw Dogs (2011)
p506
(VSGem
p507
V$10,324,441
p508
V9/16/11
p509
tp510
sVChronicle (2012)
p511
(VFox
p512
V$64,575,175
p513
V2/3/12
p514
tp515
sVThe Words
p516
(VCBS
p517
V$11,494,838
p518
V9/7/12
p519
tp520
sVTo Die is Hard
p521
(VDWOES
p522
V$4,549
p523
V12/17/10
p524
tp525
sVMaps to the Stars
p526
(VFocus
p527
V$350,741
p528
V2/27/15
p529
tp530
sVGerontophilia
p531
(VStrand
p532
V$4,916
p533
V5/1/15
p534
tp535
sVMartha Marcy May Marlene
p536
(VFoxS
p537
V$2,990,625
p538
V10/21/11
p539
tp540
sVLost River
p541
(VWB
p542
V$45,431
p543
V4/10/15
p544
tp545
sVHit and Run
p546
(VORF
p547
V$13,749,300
p548
V8/22/12
p549
tp550
sVI Origins
p551
(VFoxS
p552
V$336,472
p553
V7/18/14
p554
tp555
sVA Haunted House
p556
(VORF
p557
V$40,041,683
p558
V1/11/13
p559
tp560
sVSaint Misbehavin': The Wavy Gravy Movie
p561
(VArgo.
p562
V$29,893
p563
V12/3/10
p564
tp565
sVShame
p566
(VFoxS
p567
V$3,909,002
p568
V12/2/11
p569
tp570
sVHome Run
p571
(VGold.
p572
V$2,861,020
p573
V4/19/13
p574
tp575
sVWelcome to Me
p576
(VAlc
p577
V$608,852
p578
V5/1/15
p579
tp580
sVThe Polar Express (IMAX re-issue 2010)
p581
(VWB
p582
V$672,796
p583
V12/3/10
p584
tp585
sVThe Wicker Man - Final Cut
p586
(VRialto
p587
V$60,891
p588
V9/27/13
p589
tp590
sVAatsinki: The Story of Arctic Cowboys
p591
(VArgo.
p592
V$6,601
p593
V1/24/14
p594
tp595
sVParanoia
p596
(VRela.
p597
V$7,385,015
p598
V8/16/13
p599
tp600
sVThe DUFF
p601
(VLGF
p602
V$34,030,343
p603
V2/20/15
p604
tp605
sVStar Wars: Episode I - The Phantom Menace (in 3D)
p606
(VFox
p607
V$43,456,382
p608
V2/10/12
p609
tp610
sVStalingrad (2014)
p611
(VSony
p612
V$1,013,945
p613
V2/28/14
p614
tp615
sVJab Tak Hai Jaan
p616
(VYash
p617
V$3,047,539
p618
V11/13/12
p619
tp620
sVBesharam
p621
(VRelbig.
p622
V$679,866
p623
V10/2/13
p624
tp625
sVThe Back-Up Plan
p626
(VCBS
p627
V$37,490,007
p628
V4/23/10
p629
tp630
sVGrandmaster
p631
(VUTV
p632
V$17,077
p633
V5/4/12
p634
tp635
sVMcFarland, USA
p636
(VBV
p637
V$44,482,410
p638
V2/20/15
p639
tp640
sVBefore I Go To Sleep
p641
(VCE
p642
V$3,242,457
p643
V10/31/14
p644
tp645
sVG.I. Joe: Retaliation
p646
(VPar.
p647
V$122,523,060
p648
V3/28/13
p649
tp650
sVThe Lord of the Rings: The Fellowship of the Ring (2011 re-release)
p651
(VWB
p652
V$768,580
p653
V6/14/11
p654
tp655
sVThe Last Exorcism Part II
p656
(VCBS
p657
V$15,179,302
p658
V3/1/13
p659
tp660
sVHot Pursuit
p661
(VWB
p662
V$34,437,139
p663
V5/8/15
p664
tp665
sVEvery Day
p666
(VImag.
p667
V$46,029
p668
V1/14/11
p669
tp670
sVThe Master
p671
(VWein.
p672
V$16,377,274
p673
V9/14/12
p674
tp675
sV22 Jump Street
p676
(VSony
p677
V$191,719,337
p678
V6/13/14
p679
tp680
sVIdentity Thief
p681
(VUni.
p682
V$134,506,920
p683
V2/8/13
p684
tp685
sVParticle Fever
p686
(VAbr.
p687
V$869,838
p688
V3/5/14
p689
tp690
sVUnder the Boardwalk: The Monopoly Story
p691
(VTost.
p692
V$13,080
p693
V3/4/11
p694
tp695
sVCity Island
p696
(VAnch.
p697
V$6,671,036
p698
V3/19/10
p699
tp700
sVRise of the Guardians
p701
(VP/DW
p702
V$103,412,758
p703
V11/21/12
p704
tp705
sVDraft Day
p706
(VLG/S
p707
V$28,842,237
p708
V4/11/14
p709
tp710
sVThe Mortal Instruments: City of Bones
p711
(VSGem
p712
V$31,165,421
p713
V8/21/13
p714
tp715
sVGhost Team One
p716
(VTFA
p717
V$9,195
p718
V10/11/13
p719
tp720
sVVamps
p721
(VAnch.
p722
V$3,361
p723
V11/2/12
p724
tp725
sVDetective Byomkesh Bakshy
p726
(VYash
p727
V$579,055
p728
V4/3/15
p729
tp730
sVSilver Linings Playbook
p731
(VWein.
p732
V$132,092,958
p733
V11/16/12
p734
tp735
sVRuby Sparks
p736
(VFoxS
p737
V$2,540,106
p738
V7/25/12
p739
tp740
sVA Most Wanted Man
p741
(VRAtt.
p742
V$17,237,855
p743
V7/25/14
p744
tp745
sVSide Effects (2013)
p746
(VORF
p747
V$32,172,757
p748
V2/8/13
p749
tp750
sVNo One Lives
p751
(VAnch.
p752
V$74,918
p753
V5/10/13
p754
tp755
sVWhere Are You Taking Me?
p756
(VIcar.
p757
V$1,492
p758
V3/2/12
p759
tp760
sVJohn Carter
p761
(VBV
p762
V$73,078,100
p763
V3/9/12
p764
tp765
sVThe Passionate Thief (2014 re-release)
p766
(VRialto
p767
V$31,539
p768
V12/5/14
p769
tp770
sVMission: Impossible - Ghost Protocol
p771
(VPar.
p772
V$209,397,903
p773
V12/16/11
p774
tp775
sVBurlesque
p776
(VSGem
p777
V$39,440,655
p778
V11/24/10
p779
tp780
sVExpedition to the End of the World
p781
(VArgo.
p782
V$39,115
p783
V8/20/14
p784
tp785
sVAmerican Reunion
p786
(VUni.
p787
V$57,011,521
p788
V4/6/12
p789
tp790
sVBrick Mansions
p791
(VRela.
p792
V$20,396,829
p793
V4/25/14
p794
tp795
sVJoe (2014)
p796
(VRAtt.
p797
V$373,375
p798
V4/11/14
p799
tp800
sVOne For the Money
p801
(VLGF
p802
V$26,414,527
p803
V1/27/12
p804
tp805
sVBodyguard
p806
(VRelbig.
p807
V$1,834,384
p808
V8/31/11
p809
tp810
sVGloria (2014)
p811
(VRAtt.
p812
V$2,107,925
p813
V1/24/14
p814
tp815
sVNow, Forager
p816
(VArgo.
p817
V$11,146
p818
V10/3/12
p819
tp820
sVDo You Believe?
p821
(VPFR
p822
V$12,985,600
p823
V3/20/15
p824
tp825
sVJustice Is Mind
p826
(VTAT
p827
V$13,357
p828
V8/18/13
p829
tp830
sVPiku
p831
(VYash
p832
V$1,801,807
p833
V5/8/15
p834
tp835
sVIt Follows
p836
(VRTWC
p837
V$14,674,076
p838
V3/13/15
p839
tp840
sVFor Greater Glory
p841
(VArcEnt
p842
V$5,672,846
p843
V6/1/12
p844
tp845
sVFinding Fanny
p846
(VFIP
p847
V$615,691
p848
V9/12/14
p849
tp850
sVThe Institute
p851
(VArgo.
p852
V$8,445
p853
V10/4/13
p854
tp855
sVSaving Private Perez
p856
(VLGF
p857
V$1,400,726
p858
V9/2/11
p859
tp860
sVWrath of the Titans
p861
(VWB
p862
V$83,670,083
p863
V3/30/12
p864
tp865
sVWhite House Down
p866
(VSony
p867
V$73,103,784
p868
V6/28/13
p869
tp870
sVCopperhead
p871
(VFC
p872
V$171,740
p873
V6/28/13
p874
tp875
sVSolitary Man
p876
(VAnch.
p877
V$4,360,548
p878
V5/21/10
p879
tp880
sVUnbroken
p881
(VUni.
p882
V$115,637,895
p883
V12/25/14
p884
tp885
sV21 Jump Street
p886
(VSony
p887
V$138,447,667
p888
V3/16/12
p889
tp890
sVFlight
p891
(VPar.
p892
V$93,772,375
p893
V11/2/12
p894
tp895
sVViolet Tendencies
p896
(VEmbr.
p897
V$13,304
p898
V11/5/10
p899
tp900
sVThe Love Punch
p901
(VKE
p902
V$266,588
p903
V5/23/14
p904
tp905
sVCop Out
p906
(VWB
p907
V$44,875,481
p908
V2/26/10
p909
tp910
sVDream House
p911
(VUni.
p912
V$21,302,340
p913
V9/30/11
p914
tp915
sVThe Identical
p916
(VFree
p917
V$2,827,666
p918
V9/5/14
p919
tp920
sVMissionary
p921
(VFree
p922
V$2,120
p923
V10/31/14
p924
tp925
sVThe Liberator
p926
(VCohen
p927
V$113,067
p928
V10/3/14
p929
tp930
sVTransformers: Dark of the Moon
p931
(VP/DW
p932
V$352,390,543
p933
V6/29/11
p934
tp935
sVFrozen
p936
(VBV
p937
V$400,738,009
p938
V11/22/13
p939
tp940
sVThe Woman in Black 2: Angel of Death
p941
(VRela.
p942
V$26,501,323
p943
V1/2/15
p944
tp945
sVGett: The Trial of Viviane Amsalem
p946
(VMBox
p947
V$988,150
p948
V2/13/15
p949
tp950
sVThe Gunman
p951
(VORF
p952
V$10,664,749
p953
V3/20/15
p954
tp955
sVA Million Ways to Die in the West
p956
(VUni.
p957
V$43,139,300
p958
V5/30/14
p959
tp960
sVBernie
p961
(VMNE
p962
V$9,206,470
p963
V4/27/12
p964
tp965
sVTwelve
p966
(VHann.
p967
V$183,920
p968
V8/6/10
p969
tp970
sVMax (2015)
p971
(VWB
p972
V$34,322,835
p973
V6/26/15
p974
tp975
sVBullet to the Head
p976
(VWB
p977
V$9,489,829
p978
V2/1/13
p979
tp980
sVTranscendence
p981
(VWB
p982
V$23,022,309
p983
V4/18/14
p984
tp985
sVIn Time
p986
(VFox
p987
V$37,520,095
p988
V10/28/11
p989
tp990
sVDecoding Annie Parker
p991
(VEOne
p992
V$48,390
p993
V5/2/14
p994
tp995
sVDjango (2012 re-release)
p996
(VRialto
p997
V$25,916
p998
V12/21/12
p999
tp1000
sVSnow White and the Huntsman
p1001
(VUni.
p1002
V$155,332,381
p1003
V6/1/12
p1004
tp1005
sVLife of Crime
p1006
(VRAtt.
p1007
V$265,452
p1008
V8/29/14
p1009
tp1010
sVDrive Angry
p1011
(VSum.
p1012
V$10,721,033
p1013
V2/25/11
p1014
tp1015
sVAnna
p1016
(VVE
p1017
V$4,288
p1018
V6/6/14
p1019
tp1020
sVDelhi Belly
p1021
(VUTV
p1022
V$1,532,594
p1023
V7/1/11
p1024
tp1025
sVJack Ryan: Shadow Recruit
p1026
(VPar.
p1027
V$50,577,412
p1028
V1/17/14
p1029
tp1030
sVThe King's Speech (PG-13)
p1031
(VWein.
p1032
V$3,344,306
p1033
V4/1/11
p1034
tp1035
sVTo Save a Life
p1036
(VGold.
p1037
V$3,777,210
p1038
V1/22/10
p1039
tp1040
sVTakers
p1041
(VSGem
p1042
V$57,744,720
p1043
V8/27/10
p1044
tp1045
sVSnitch
p1046
(VLG/S
p1047
V$42,930,462
p1048
V2/22/13
p1049
tp1050
sVImmigration Tango
p1051
(VRAtt.
p1052
V$24,554
p1053
V2/18/11
p1054
tp1055
sVWhen in Rome
p1056
(VBV
p1057
V$32,680,633
p1058
V1/29/10
p1059
tp1060
sVLinsanity
p1061
(VKE
p1062
V$302,645
p1063
V10/4/13
p1064
tp1065
sVArt of Submission
p1066
(VPMP
p1067
V$9,004
p1068
V9/21/12
p1069
tp1070
sVDigging Up the Marrow
p1071
(VHF
p1072
V$10,969
p1073
V2/12/15
p1074
tp1075
sVChasing Mavericks
p1076
(VFox
p1077
V$6,002,756
p1078
V10/26/12
p1079
tp1080
sVWild Target
p1081
(VFree
p1082
V$108,589
p1083
V10/29/10
p1084
tp1085
sVQuartet
p1086
(VWein.
p1087
V$18,390,117
p1088
V1/11/13
p1089
tp1090
sVThe Sitter
p1091
(VFox
p1092
V$30,441,326
p1093
V12/9/11
p1094
tp1095
sVRemnants
p1096
(VALP
p1097
V$1,022
p1098
V11/14/13
p1099
tp1100
sVRio
p1101
(VFox
p1102
V$143,619,809
p1103
V4/15/11
p1104
tp1105
sVThe Word
p1106
(VSSP
p1107
V$3,648
p1108
V3/14/14
p1109
tp1110
sVShrek Forever After
p1111
(VP/DW
p1112
V$238,736,787
p1113
V5/21/10
p1114
tp1115
sVBelle
p1116
(VFoxS
p1117
V$10,726,630
p1118
V5/2/14
p1119
tp1120
sVMas Negro Que La Noche
p1121
(VLGF
p1122
V$870,063
p1123
V9/26/14
p1124
tp1125
sVThe Immortalists
p1126
(VGathr
p1127
V$9,331
p1128
V11/26/14
p1129
tp1130
sVGrown Ups
p1131
(VSony
p1132
V$162,001,186
p1133
V6/25/10
p1134
tp1135
sVGeneral Education
p1136
(VPHP
p1137
V$8,601
p1138
V8/24/12
p1139
tp1140
sVGhanchakkar
p1141
(VUTV
p1142
V$203,044
p1143
V6/28/13
p1144
tp1145
sVMade in Cleveland
p1146
(VSE
p1147
V$10,681
p1148
V6/21/13
p1149
tp1150
sVI Am Number Four
p1151
(VBV
p1152
V$55,100,437
p1153
V2/18/11
p1154
tp1155
sVThe Devil's Hand
p1156
(VRAtt.
p1157
V$5,746
p1158
V10/10/14
p1159
tp1160
sVThe Hangover Part III
p1161
(VWB
p1162
V$112,200,072
p1163
V5/23/13
p1164
tp1165
sVWoman Thou Art Loosed!: On the 7th Day
p1166
(VCode
p1167
V$1,213,128
p1168
V4/13/12
p1169
tp1170
sVPremium Rush
p1171
(VSony
p1172
V$20,275,446
p1173
V8/24/12
p1174
tp1175
sVSound of My Voice
p1176
(VFoxS
p1177
V$408,015
p1178
V4/27/12
p1179
tp1180
sVOblivion
p1181
(VUni.
p1182
V$89,107,235
p1183
V4/19/13
p1184
tp1185
sVShe's Out of My League
p1186
(VPar.
p1187
V$32,010,860
p1188
V3/12/10
p1189
tp1190
sVOut of the Furnace
p1191
(VRela.
p1192
V$11,330,849
p1193
V12/4/13
p1194
tp1195
sVHiroshima Mon Amour (2014 re-release)
p1196
(VRialto
p1197
V$96,439
p1198
V10/17/14
p1199
tp1200
sVTalaash
p1201
(VRelbig.
p1202
V$2,871,956
p1203
V11/30/12
p1204
tp1205
sVFinal: The Rapture
p1206
(VRivR
p1207
V$124,561
p1208
V9/13/13
p1209
tp1210
sVWreck-It Ralph
p1211
(VBV
p1212
V$189,422,889
p1213
V11/2/12
p1214
tp1215
sVCome Back to Me
p1216
(VFree
p1217
V$7,744
p1218
V7/25/14
p1219
tp1220
sVOn the Bowery (re-release)
p1221
(VMile.
p1222
V$41,802
p1223
V9/17/10
p1224
tp1225
sVThe Tempest
p1226
(VMira.
p1227
V$277,943
p1228
V12/10/10
p1229
tp1230
sVKick-Ass
p1231
(VLGF
p1232
V$48,071,303
p1233
V4/16/10
p1234
tp1235
sVTurtle: The Incredible Journey
p1236
(VHann.
p1237
V$386,073
p1238
V6/24/11
p1239
tp1240
sVThe Dry Land
p1241
(VFree
p1242
V$11,777
p1243
V7/30/10
p1244
tp1245
sVMagic Mike XXL
p1246
(VWB
p1247
V$49,593,372
p1248
V7/1/15
p1249
tp1250
sVTales of the Night
p1251
(VGK
p1252
V$10,975
p1253
V9/26/12
p1254
tp1255
sVSkyfall
p1256
(VSony
p1257
V$304,360,277
p1258
V11/9/12
p1259
tp1260
sVSafe (2012)
p1261
(VLGF
p1262
V$17,142,080
p1263
V4/27/12
p1264
tp1265
sVBeasts of the Southern Wild
p1266
(VFoxS
p1267
V$12,795,746
p1268
V6/27/12
p1269
tp1270
sVHouse at the End of The Street
p1271
(VRela.
p1272
V$31,611,916
p1273
V9/21/12
p1274
tp1275
sVForrest Gump (IMAX)
p1276
(VPar.
p1277
V$557,683
p1278
V9/5/14
p1279
tp1280
sVSarah's Key
p1281
(VWein.
p1282
V$7,693,187
p1283
V7/22/11
p1284
tp1285
sVJustin Bieber: Never Say Never
p1286
(VPar.
p1287
V$73,013,910
p1288
V2/11/11
p1289
tp1290
sVSalmon Fishing in the Yemen
p1291
(VCBS
p1292
V$9,047,981
p1293
V3/9/12
p1294
tp1295
sVThe Mechanic
p1296
(VCBS
p1297
V$29,121,498
p1298
V1/28/11
p1299
tp1300
sVSilent Hill: Revelation 3D
p1301
(VORF
p1302
V$17,529,157
p1303
V10/26/12
p1304
tp1305
sVAs Above/So Below
p1306
(VUni.
p1307
V$21,321,100
p1308
V8/29/14
p1309
tp1310
sVLola Versus
p1311
(VFoxS
p1312
V$252,603
p1313
V6/8/12
p1314
tp1315
sVJourney 2: The Mysterious Island
p1316
(VWB
p1317
V$103,860,290
p1318
V2/10/12
p1319
tp1320
sVSpy Kids: All the Time in the World
p1321
(VW/Dim.
p1322
V$38,538,188
p1323
V8/19/11
p1324
tp1325
sVRedemption Road
p1326
(VFree
p1327
V$29,384
p1328
V8/26/11
p1329
tp1330
sVTomorrowland
p1331
(VBV
p1332
V$91,491,719
p1333
V5/22/15
p1334
tp1335
sVTop Gun 3D
p1336
(VPar.
p1337
V$3,018,873
p1338
V2/8/13
p1339
tp1340
sVOn the Other Side of the Tracks
p1341
(VWein.
p1342
V$9,572
p1343
V4/4/14
p1344
tp1345
sVHoodwinked Too! Hood vs. Evil
p1346
(VWein.
p1347
V$10,143,779
p1348
V4/29/11
p1349
tp1350
sVLong Shot: The Kevin Laue Story (2013)
p1351
(VCini
p1352
V$29,863
p1353
V10/25/13
p1354
tp1355
sVGirl in Progress
p1356
(VLGF
p1357
V$2,609,412
p1358
V5/11/12
p1359
tp1360
sVUnfriended
p1361
(VUni.
p1362
V$32,482,090
p1363
V4/17/15
p1364
tp1365
sVGreen Lantern
p1366
(VWB
p1367
V$116,601,172
p1368
V6/17/11
p1369
tp1370
sVSong One
p1371
(VTFA
p1372
V$32,251
p1373
V1/23/15
p1374
tp1375
sVThe Concert
p1376
(VWein.
p1377
V$657,986
p1378
V7/30/10
p1379
tp1380
sVDeli Man
p1381
(VCohen
p1382
V$502,294
p1383
V2/27/15
p1384
tp1385
sVEk Main Aur Ekk Tu
p1386
(VUTV
p1387
V$1,155,545
p1388
V2/10/12
p1389
tp1390
sVThe Adjustment Bureau
p1391
(VUni.
p1392
V$62,495,645
p1393
V3/4/11
p1394
tp1395
sVZombeavers
p1396
(VFree
p1397
V$14,947
p1398
V3/20/15
p1399
tp1400
sVBlue Jasmine
p1401
(VSPC
p1402
V$33,405,481
p1403
V7/26/13
p1404
tp1405
sVSkateland
p1406
(VFree
p1407
V$19,411
p1408
V5/13/11
p1409
tp1410
sVThe Perks of Being a Wallflower
p1411
(VLG/S
p1412
V$17,742,948
p1413
V9/21/12
p1414
tp1415
sVYouth in Revolt
p1416
(VW/Dim.
p1417
V$15,281,286
p1418
V1/8/10
p1419
tp1420
sVThe Big Picture (2012)
p1421
(VMPI
p1422
V$158,411
p1423
V10/12/12
p1424
tp1425
sVGrudge Match
p1426
(VWB
p1427
V$29,807,260
p1428
V12/25/13
p1429
tp1430
sVAfflicted (2014)
p1431
(VCBS
p1432
V$121,179
p1433
V4/4/14
p1434
tp1435
sVWhen Marnie Was There
p1436
(VGK
p1437
V$513,205
p1438
V5/22/15
p1439
tp1440
sVSkyline
p1441
(VUni.
p1442
V$21,393,620
p1443
V11/12/10
p1444
tp1445
sVCook County
p1446
(VHann.
p1447
V$17,977
p1448
V12/16/11
p1449
tp1450
sVDelivery Man
p1451
(VBV
p1452
V$30,664,106
p1453
V11/22/13
p1454
tp1455
sVTwilight/New Moon Combo (one-night-only)
p1456
(VSum.
p1457
V$2,385,237
p1458
V6/29/10
p1459
tp1460
sVThe Raven
p1461
(VRela.
p1462
V$16,008,272
p1463
V4/27/12
p1464
tp1465
sVKai Po Che
p1466
(VUTV
p1467
V$1,122,527
p1468
V2/22/13
p1469
tp1470
sVPercy Jackson: Sea of Monsters
p1471
(VFox
p1472
V$68,559,554
p1473
V8/7/13
p1474
tp1475
sVVidal Sassoon: The Movie
p1476
(VP4
p1477
V$85,974
p1478
V2/11/11
p1479
tp1480
sVThe One I Love
p1481
(VRTWC
p1482
V$513,447
p1483
V8/22/14
p1484
tp1485
sVDolphin Tale 2
p1486
(VWB
p1487
V$42,024,533
p1488
V9/12/14
p1489
tp1490
sVNext Goal Wins
p1491
(VKE
p1492
V$43,089
p1493
V4/25/14
p1494
tp1495
sVDouble Dhamaal
p1496
(VRelbig.
p1497
V$543,646
p1498
V6/24/11
p1499
tp1500
sVBeautiful Darling
p1501
(VCrnth
p1502
V$34,096
p1503
V4/22/11
p1504
tp1505
sVThe Hundred-Foot Journey
p1506
(VBV
p1507
V$54,240,821
p1508
V8/8/14
p1509
tp1510
sVKnight & Day
p1511
(VFox
p1512
V$76,423,035
p1513
V6/23/10
p1514
tp1515
sVFruitvale Station
p1516
(VWein.
p1517
V$16,101,339
p1518
V7/12/13
p1519
tp1520
sVBeetle Queen Conquers Tokyo
p1521
(VArgo.
p1522
V$32,308
p1523
V5/12/10
p1524
tp1525
sVMorning
p1526
(VAnch.
p1527
V$4,029
p1528
V9/27/13
p1529
tp1530
sVWhite God
p1531
(VMagn.
p1532
V$282,358
p1533
V3/27/15
p1534
tp1535
sVThe Lincoln Lawyer
p1536
(VLGF
p1537
V$58,009,200
p1538
V3/18/11
p1539
tp1540
sVParanormal Activity 4
p1541
(VPar.
p1542
V$53,900,335
p1543
V10/19/12
p1544
tp1545
sVStarbuck (U.S. only)
p1546
(VE1
p1547
V$340,058
p1548
V3/22/13
p1549
tp1550
sVParanormal Activity 2
p1551
(VPar.
p1552
V$84,752,907
p1553
V10/22/10
p1554
tp1555
sVThe Girl with the Dragon Tattoo (2011)
p1556
(VSony
p1557
V$102,515,793
p1558
V12/21/11
p1559
tp1560
sVEscape Fire
p1561
(VRAtt.
p1562
V$126,238
p1563
V10/5/12
p1564
tp1565
sVCharlie St. Cloud
p1566
(VUni.
p1567
V$31,162,545
p1568
V7/30/10
p1569
tp1570
sVFright Night (2011)
p1571
(VBV
p1572
V$18,302,607
p1573
V8/19/11
p1574
tp1575
sVBlue Ruin
p1576
(VRTWC
p1577
V$258,384
p1578
V4/25/14
p1579
tp1580
sVDredd
p1581
(VLGF
p1582
V$13,414,714
p1583
V9/21/12
p1584
tp1585
sVMe and Earl and the Dying Girl
p1586
(VFoxS
p1587
V$5,643,297
p1588
V6/12/15
p1589
tp1590
sVJake Squared
p1591
(VFree
p1592
V$2,592
p1593
V8/15/14
p1594
tp1595
sVCatfish
p1596
(VRog.
p1597
V$3,237,343
p1598
V9/17/10
p1599
tp1600
sVSucker Punch
p1601
(VWB
p1602
V$36,392,502
p1603
V3/25/11
p1604
tp1605
sVDetention of the Dead
p1606
(VAnch.
p1607
V$1,777
p1608
V6/28/13
p1609
tp1610
sVLove and Other Drugs
p1611
(VFox
p1612
V$32,367,005
p1613
V11/24/10
p1614
tp1615
sVPompeii
p1616
(VTriS
p1617
V$23,219,748
p1618
V2/21/14
p1619
tp1620
sVAnnabelle
p1621
(VWB (NL)
p1622
V$84,273,813
p1623
V10/3/14
p1624
tp1625
sVPulling Strings
p1626
(VLGF
p1627
V$5,842,961
p1628
V10/4/13
p1629
tp1630
sVMacGruber
p1631
(VUni.
p1632
V$8,525,600
p1633
V5/21/10
p1634
tp1635
sVBless Me Ultima
p1636
(VAren
p1637
V$1,553,826
p1638
V2/22/13
p1639
tp1640
sVThe Hunger Games: Catching Fire
p1641
(VLGF
p1642
V$424,668,047
p1643
V11/22/13
p1644
tp1645
sVABCD (Any Body Can Dance)
p1646
(VUTV
p1647
V$222,098
p1648
V2/8/13
p1649
tp1650
sVGoing the Distance
p1651
(VWB (NL)
p1652
V$17,804,299
p1653
V9/3/10
p1654
tp1655
sVFreetown
p1656
(VPurd.
p1657
V$387,130
p1658
V4/8/15
p1659
tp1660
sVRangrezz
p1661
(VUTV
p1662
V$6,108
p1663
V3/22/13
p1664
tp1665
sVWaiting for Forever
p1666
(VFree
p1667
V$25,517
p1668
V2/4/11
p1669
tp1670
sVTaken 2
p1671
(VFox
p1672
V$139,854,287
p1673
V10/5/12
p1674
tp1675
sVTaken 3
p1676
(VFox
p1677
V$89,256,424
p1678
V1/9/15
p1679
tp1680
sVEmperor
p1681
(VRAtt.
p1682
V$3,346,265
p1683
V3/8/13
p1684
tp1685
sVThe Artist
p1686
(VWein.
p1687
V$44,671,682
p1688
V11/25/11
p1689
tp1690
sVThe Fighter
p1691
(VPar.
p1692
V$93,617,009
p1693
V12/10/10
p1694
tp1695
sVCuban Fury
p1696
(VEOne
p1697
V$92,384
p1698
V4/11/14
p1699
tp1700
sVTwo Night Stand
p1701
(VEOne
p1702
V$18,612
p1703
V9/26/14
p1704
tp1705
sVAbout Time
p1706
(VUni.
p1707
V$15,322,921
p1708
V11/1/13
p1709
tp1710
sVThe Longest Ride
p1711
(VFox
p1712
V$37,446,117
p1713
V4/10/15
p1714
tp1715
sVThe Counselor
p1716
(VFox
p1717
V$16,973,715
p1718
V10/25/13
p1719
tp1720
sVLotus Eaters
p1721
(VN/A
p1722
V$2,325
p1723
V4/5/13
p1724
tp1725
sVEdge of Tomorrow
p1726
(VWB
p1727
V$100,206,256
p1728
V6/6/14
p1729
tp1730
sVTerminator: Genisys
p1731
(VPar.
p1732
V$70,448,242
p1733
V7/1/15
p1734
tp1735
sVCloud Atlas
p1736
(VWB
p1737
V$27,108,272
p1738
V10/26/12
p1739
tp1740
sVA Very Harold & Kumar 3D Christmas
p1741
(VWB (NL)
p1742
V$35,061,031
p1743
V11/4/11
p1744
tp1745
sVHyde Park on Hudson
p1746
(VFocus
p1747
V$6,376,145
p1748
V12/7/12
p1749
tp1750
sVThe Immigrant
p1751
(VWein.
p1752
V$2,025,328
p1753
V5/16/14
p1754
tp1755
sVSafe House
p1756
(VUni.
p1757
V$126,373,434
p1758
V2/10/12
p1759
tp1760
sVBridesmaids
p1761
(VUni.
p1762
V$169,106,725
p1763
V5/13/11
p1764
tp1765
sVDeath at a Funeral (2010)
p1766
(VSGem
p1767
V$42,739,347
p1768
V4/16/10
p1769
tp1770
sVHercules (2014)
p1771
(VPar.
p1772
V$72,688,614
p1773
V7/25/14
p1774
tp1775
sVSex Tape
p1776
(VSony
p1777
V$38,543,473
p1778
V7/18/14
p1779
tp1780
sVHasee Toh Phasee
p1781
(VRelbig.
p1782
V$646,035
p1783
V2/7/14
p1784
tp1785
sVThe Purge
p1786
(VUni.
p1787
V$64,473,115
p1788
V6/7/13
p1789
tp1790
sVForbidden Games (1952)
p1791
(VRialto
p1792
V$14,606
p1793
V4/24/15
p1794
tp1795
sVSinister
p1796
(VLG/S
p1797
V$48,086,903
p1798
V10/12/12
p1799
tp1800
sVHall Pass
p1801
(VWB (NL)
p1802
V$45,060,734
p1803
V2/25/11
p1804
tp1805
sVKumiko, The Treasure Hunter
p1806
(VAmpl.
p1807
V$623,383
p1808
V3/18/15
p1809
tp1810
sVCrazy, Stupid, Love.
p1811
(VWB
p1812
V$84,351,197
p1813
V7/29/11
p1814
tp1815
sVW.E.
p1816
(VWein.
p1817
V$583,455
p1818
V2/3/12
p1819
tp1820
sVEscape Plan
p1821
(VLG/S
p1822
V$25,135,965
p1823
V10/18/13
p1824
tp1825
sVRoboCop (2014)
p1826
(VSony
p1827
V$58,607,007
p1828
V2/12/14
p1829
tp1830
sVThe Topp Twins: Untouchable Girls
p1831
(VArgo.
p1832
V$29,316
p1833
V5/13/11
p1834
tp1835
sVInherent Vice
p1836
(VWB
p1837
V$8,110,975
p1838
V12/12/14
p1839
tp1840
sVSparkle (2012)
p1841
(VTriS
p1842
V$24,397,469
p1843
V8/17/12
p1844
tp1845
sVMirror Mirror
p1846
(VRela.
p1847
V$64,935,167
p1848
V3/30/12
p1849
tp1850
sVLes Miserables (2012)
p1851
(VUni.
p1852
V$148,809,770
p1853
V12/25/12
p1854
tp1855
sV47 Ronin
p1856
(VUni.
p1857
V$38,362,475
p1858
V12/25/13
p1859
tp1860
sVThe Way
p1861
(VPDA
p1862
V$4,430,765
p1863
V10/7/11
p1864
tp1865
sVThe Double
p1866
(VImag.
p1867
V$137,921
p1868
V10/28/11
p1869
tp1870
sVEdge of Darkness
p1871
(VWB
p1872
V$43,313,890
p1873
V1/29/10
p1874
tp1875
sVTotal Recall (2012)
p1876
(VSony
p1877
V$58,877,969
p1878
V8/3/12
p1879
tp1880
sVThe Grand Budapest Hotel
p1881
(VFoxS
p1882
V$59,100,318
p1883
V3/7/14
p1884
tp1885
sVTyler Perry's The Single Moms Club
p1886
(VLGF
p1887
V$15,973,881
p1888
V3/14/14
p1889
tp1890
sVKevin Hart: Laugh at My Pain
p1891
(VCode
p1892
V$7,706,436
p1893
V9/9/11
p1894
tp1895
sVDark Shadows
p1896
(VWB
p1897
V$79,727,149
p1898
V5/11/12
p1899
tp1900
sVGrand Depart
p1901
(VRialto
p1902
V$677
p1903
V5/23/14
p1904
tp1905
sVI Want Your Money
p1906
(VFree
p1907
V$433,588
p1908
V10/15/10
p1909
tp1910
sVCinderella (2015)
p1911
(VBV
p1912
V$200,743,973
p1913
V3/13/15
p1914
tp1915
sVLiving in Emergency
p1916
(VTruly
p1917
V$32,208
p1918
V6/4/10
p1919
tp1920
sVMuch Ado About Nothing (2013)
p1921
(VRAtt.
p1922
V$4,328,849
p1923
V6/7/13
p1924
tp1925
sVThe People I've Slept With
p1926
(VPP
p1927
V$19,137
p1928
V8/13/10
p1929
tp1930
sVTimbuktu
p1931
(VCohen
p1932
V$1,076,075
p1933
V1/28/15
p1934
tp1935
sVWarm Bodies
p1936
(VLG/S
p1937
V$66,380,662
p1938
V2/1/13
p1939
tp1940
sVJayne Mansfield's Car
p1941
(VAnch.
p1942
V$14,836
p1943
V9/13/13
p1944
tp1945
sV3 Days to Kill
p1946
(VRela.
p1947
V$30,697,999
p1948
V2/21/14
p1949
tp1950
sVThe Water Diviner
p1951
(VWB
p1952
V$4,196,641
p1953
V4/24/15
p1954
tp1955
sVCirque Du Soleil: Worlds Away
p1956
(VPar.
p1957
V$12,512,862
p1958
V12/21/12
p1959
tp1960
sVThe Painting (2013)
p1961
(VGK
p1962
V$21,008
p1963
V5/10/13
p1964
tp1965
sVThe Man Who Fell to Earth (35th anniversary re-issue)
p1966
(VRialto
p1967
V$100,072
p1968
V6/24/11
p1969
tp1970
sVGangster's Paradise: Jerusalema
p1971
(VAnch.
p1972
V$7,294
p1973
V6/11/10
p1974
tp1975
sVThe Devil's Double
p1976
(VLGF
p1977
V$1,361,512
p1978
V7/29/11
p1979
tp1980
sVThe Cold Light of Day
p1981
(VLG/S
p1982
V$3,763,583
p1983
V9/7/12
p1984
tp1985
sVThe Servant (2013 re-release)
p1986
(VRialto
p1987
V$36,463
p1988
V7/26/13
p1989
tp1990
sVAdult Beginners
p1991
(VRTWC
p1992
V$104,808
p1993
V4/24/15
p1994
tp1995
sV7 Khoon Maaf
p1996
(VUTV
p1997
V$270,207
p1998
V2/18/11
p1999
tp2000
sVJ. Edgar
p2001
(VWB
p2002
V$37,306,030
p2003
V11/9/11
p2004
tp2005
sVSaw 10th Anniversary
p2006
(VLGF
p2007
V$815,324
p2008
V10/31/14
p2009
tp2010
sVAtlas Shrugged Part III: Who Is John Galt?
p2011
(VADC
p2012
V$846,704
p2013
V9/12/14
p2014
tp2015
sVThank You (2011)
p2016
(VUTV
p2017
V$463,540
p2018
V4/8/11
p2019
tp2020
sVBelieve
p2021
(VORF
p2022
V$6,206,566
p2023
V12/25/13
p2024
tp2025
sVMere Brother Ki Dulhan
p2026
(VYash
p2027
V$496,172
p2028
V9/9/11
p2029
tp2030
sVEndless Love (2014)
p2031
(VUni.
p2032
V$23,438,250
p2033
V2/14/14
p2034
tp2035
sVJoker
p2036
(VUTV
p2037
V$169,181
p2038
V8/31/12
p2039
tp2040
sVOogieloves In The BIG Balloon Adventure
p2041
(VKVP
p2042
V$1,065,907
p2043
V8/29/12
p2044
tp2045
sVInsidious Chapter 3
p2046
(VFocus
p2047
V$51,788,199
p2048
V6/5/15
p2049
tp2050
sVInsidious Chapter 2
p2051
(VFD
p2052
V$83,586,447
p2053
V9/13/13
p2054
tp2055
sVHer (2013)
p2056
(VWB
p2057
V$25,568,251
p2058
V12/18/13
p2059
tp2060
sVThe Last Exorcism
p2061
(VLGF
p2062
V$41,034,350
p2063
V8/27/10
p2064
tp2065
sVParker
p2066
(VFD
p2067
V$17,616,641
p2068
V1/25/13
p2069
tp2070
sVBattleship
p2071
(VUni.
p2072
V$65,422,625
p2073
V5/18/12
p2074
tp2075
sVThe Croods
p2076
(VFox
p2077
V$187,168,425
p2078
V3/22/13
p2079
tp2080
sVStep Up All In
p2081
(VLG/S
p2082
V$14,904,384
p2083
V8/8/14
p2084
tp2085
sVTosca's Kiss (2014 re-release)
p2086
(VIcar.
p2087
V$13,670
p2088
V6/6/14
p2089
tp2090
sVMonte Carlo
p2091
(VFox
p2092
V$23,186,769
p2093
V7/1/11
p2094
tp2095
sVPrincess Kaiulani
p2096
(VRAtt.
p2097
V$883,887
p2098
V5/14/10
p2099
tp2100
sVGravity
p2101
(VWB
p2102
V$274,092,705
p2103
V10/4/13
p2104
tp2105
sVThe Disappearance of Alice Creed
p2106
(VAnch.
p2107
V$166,980
p2108
V8/6/10
p2109
tp2110
sVRed
p2111
(VSum.
p2112
V$90,380,162
p2113
V10/15/10
p2114
tp2115
sVApproved for Adoption
p2116
(VGK
p2117
V$4,015
p2118
V11/8/13
p2119
tp2120
sVRide Along
p2121
(VUni.
p2122
V$134,938,200
p2123
V1/17/14
p2124
tp2125
sVIsland of Lemurs: Madagascar (IMAX)
p2126
(VWB
p2127
V$10,008,184
p2128
V4/4/14
p2129
tp2130
sVThe Woman in the Fifth
p2131
(VATO
p2132
V$113,800
p2133
V6/15/12
p2134
tp2135
sVMagician: The Astonishing Life and Work of Orson Welles
p2136
(VCohen
p2137
V$16,400
p2138
V12/10/14
p2139
tp2140
sVMandela: Long Walk to Freedom
p2141
(VWein.
p2142
V$8,323,085
p2143
V11/29/13
p2144
tp2145
sVI Spit on Your Grave 2
p2146
(VAnch.
p2147
V$809
p2148
V9/20/13
p2149
tp2150
sVJames Cameron's Deepsea Challenge 3D
p2151
(VDLA
p2152
V$235,659
p2153
V8/8/14
p2154
tp2155
sVMarvel's The Avengers
p2156
(VBV
p2157
V$623,357,910
p2158
V5/4/12
p2159
tp2160
sVThis Means War
p2161
(VFox
p2162
V$54,760,791
p2163
V2/17/12
p2164
tp2165
sVInsidious
p2166
(VFD
p2167
V$54,009,150
p2168
V4/1/11
p2169
tp2170
sVAnd So It Goes
p2171
(VCE
p2172
V$15,160,801
p2173
V7/25/14
p2174
tp2175
sVThe Hornet's Nest
p2176
(VFree
p2177
V$312,706
p2178
V5/9/14
p2179
tp2180
sVApollo 18
p2181
(VW/Dim.
p2182
V$17,687,709
p2183
V9/2/11
p2184
tp2185
sVHigh School
p2186
(VAnch.
p2187
V$139,034
p2188
V6/1/12
p2189
tp2190
sVSnowpiercer
p2191
(VRTWC
p2192
V$4,563,650
p2193
V6/27/14
p2194
tp2195
sVAustenland
p2196
(VSPC
p2197
V$2,159,041
p2198
V8/16/13
p2199
tp2200
sVThe Rum Diary
p2201
(VFD
p2202
V$13,109,815
p2203
V10/28/11
p2204
tp2205
sVMr. Popper's Penguins
p2206
(VFox
p2207
V$68,224,452
p2208
V6/17/11
p2209
tp2210
sVBad Teacher
p2211
(VSony
p2212
V$100,292,856
p2213
V6/24/11
p2214
tp2215
sVAdmission
p2216
(VFocus
p2217
V$18,007,317
p2218
V3/22/13
p2219
tp2220
sVCasa De Mi Padre
p2221
(VLGF
p2222
V$5,909,483
p2223
V3/16/12
p2224
tp2225
sVThe Conjuring
p2226
(VWB
p2227
V$137,400,141
p2228
V7/19/13
p2229
tp2230
sVContraband
p2231
(VUni.
p2232
V$66,528,000
p2233
V1/13/12
p2234
tp2235
sVKirk Cameron's Saving Christmas
p2236
(VGold.
p2237
V$2,783,970
p2238
V11/14/14
p2239
tp2240
sVCase 39
p2241
(VParV
p2242
V$13,261,851
p2243
V10/1/10
p2244
tp2245
sVThe Book of Life (2014)
p2246
(VFox
p2247
V$50,151,543
p2248
V10/17/14
p2249
tp2250
sVTammy
p2251
(VWB
p2252
V$84,525,432
p2253
V7/2/14
p2254
tp2255
sVThe Guest (2014)
p2256
(VPH
p2257
V$332,890
p2258
V9/17/14
p2259
tp2260
sVFrom Paris with Love
p2261
(VLGF
p2262
V$24,077,427
p2263
V2/5/10
p2264
tp2265
sVDon't Be Afraid of the Dark
p2266
(VFD
p2267
V$24,046,682
p2268
V8/26/11
p2269
tp2270
sVThink Like a Man
p2271
(VSGem
p2272
V$91,547,205
p2273
V4/20/12
p2274
tp2275
sVBattle of the Year
p2276
(VSGem
p2277
V$8,888,355
p2278
V9/20/13
p2279
tp2280
sVDirty Girl
p2281
(VWein.
p2282
V$55,125
p2283
V10/7/11
p2284
tp2285
sVTop Five
p2286
(VPar.
p2287
V$25,317,291
p2288
V12/12/14
p2289
tp2290
sVLast Ounce of Courage
p2291
(VRM
p2292
V$3,329,674
p2293
V9/14/12
p2294
tp2295
sVMargin Call
p2296
(VRAtt.
p2297
V$5,354,039
p2298
V10/21/11
p2299
tp2300
sVDown for Life
p2301
(VBDF
p2302
V$41,914
p2303
V1/14/11
p2304
tp2305
sVPhilomena
p2306
(VWein.
p2307
V$37,709,979
p2308
V11/22/13
p2309
tp2310
sVThe King and the Mockingbird
p2311
(VRialto
p2312
V$27,513
p2313
V11/21/14
p2314
tp2315
sVHappy Feet Two
p2316
(VWB
p2317
V$64,006,466
p2318
V11/18/11
p2319
tp2320
sVThe Runaways
p2321
(VApp.
p2322
V$3,573,673
p2323
V3/19/10
p2324
tp2325
sVCasablanca (2012 re-release)
p2326
(VWB
p2327
V$1,155,330
p2328
V3/21/12
p2329
tp2330
sVAfter Earth
p2331
(VSony
p2332
V$60,522,097
p2333
V5/31/13
p2334
tp2335
sVA Cat in Paris
p2336
(VGK
p2337
V$309,973
p2338
V6/1/12
p2339
tp2340
sVGetaway (2013)
p2341
(VWB
p2342
V$10,501,938
p2343
V8/30/13
p2344
tp2345
sVScorn
p2346
(VCort.
p2347
V$2,206
p2348
V3/1/12
p2349
tp2350
sVCoriolanus
p2351
(VWein.
p2352
V$757,195
p2353
V1/20/12
p2354
tp2355
sVNoble
p2356
(VAsp.
p2357
V$347,321
p2358
V5/8/15
p2359
tp2360
sVThe Grandmaster
p2361
(VWein.
p2362
V$6,594,959
p2363
V8/23/13
p2364
tp2365
sVPenton: The John Penton Story
p2366
(VGathr
p2367
V$112,159
p2368
V6/23/14
p2369
tp2370
sVPrometheus
p2371
(VFox
p2372
V$126,477,084
p2373
V6/8/12
p2374
tp2375
sVOne Day
p2376
(VFocus
p2377
V$13,843,771
p2378
V8/19/11
p2379
tp2380
sVWent The Day Well? (2011 re-release)
p2381
(VRialto
p2382
V$47,214
p2383
V5/20/11
p2384
tp2385
sVThe Incredible Burt Wonderstone
p2386
(VWB
p2387
V$22,537,881
p2388
V3/15/13
p2389
tp2390
sVChocolate City
p2391
(VFree
p2392
V$212,662
p2393
V5/22/15
p2394
tp2395
sVLetters to Juliet
p2396
(VSum.
p2397
V$53,032,453
p2398
V5/14/10
p2399
tp2400
sVThe Mighty Macs
p2401
(VQM
p2402
V$1,891,936
p2403
V10/21/11
p2404
tp2405
sVThe Inevitable Defeat of Mister and Pete
p2406
(VLGF
p2407
V$494,608
p2408
V10/11/13
p2409
tp2410
sVThe Hunger Games: Mockingjay - Part 1
p2411
(VLGF
p2412
V$337,135,885
p2413
V11/21/14
p2414
tp2415
sVRock of Ages
p2416
(VWB (NL)
p2417
V$38,518,613
p2418
V6/15/12
p2419
tp2420
sVThe Tales of Hoffmann (2015 re-issue)
p2421
(VRialto
p2422
V$91,930
p2423
V3/13/15
p2424
tp2425
sVBirdman
p2426
(VFoxS
p2427
V$42,340,598
p2428
V10/17/14
p2429
tp2430
sVBig Mommas: Like Father, Like Son
p2431
(VFox
p2432
V$37,915,414
p2433
V2/18/11
p2434
tp2435
sVCake
p2436
(VCLF
p2437
V$1,951,776
p2438
V1/23/15
p2439
tp2440
sVAlmost in Love
p2441
(VArgo.
p2442
V$2,510
p2443
V2/15/13
p2444
tp2445
sVBoyhood
p2446
(VIFC
p2447
V$25,352,281
p2448
V7/11/14
p2449
tp2450
sVAarakshan (Reservation)
p2451
(VRelbig.
p2452
V$651,096
p2453
V8/12/11
p2454
tp2455
sVBlended
p2456
(VWB
p2457
V$46,294,610
p2458
V5/23/14
p2459
tp2460
sVCaptain America: The Winter Soldier
p2461
(VBV
p2462
V$259,766,572
p2463
V4/4/14
p2464
tp2465
sVGori Tere Pyaar Mein
p2466
(VRelbig.
p2467
V$342,184
p2468
V11/22/13
p2469
tp2470
sVSnowmen
p2471
(VCdgm.
p2472
V$54,805
p2473
V10/21/11
p2474
tp2475
sVPride (2014)
p2476
(VCBS
p2477
V$1,446,634
p2478
V9/26/14
p2479
tp2480
sVOn Any Sunday: The Next Chapter
p2481
(VHann.
p2482
V$543,044
p2483
V11/7/14
p2484
tp2485
sVDragon Ball Z: Battle of Gods
p2486
(VSV
p2487
V$2,553,002
p2488
V8/5/14
p2489
tp2490
sVThe Possession
p2491
(VLGF
p2492
V$49,130,154
p2493
V8/31/12
p2494
tp2495
sVLost and Found in Armenia
p2496
(VHTR
p2497
V$122,305
p2498
V6/7/13
p2499
tp2500
sVTiger Eyes
p2501
(VFree
p2502
V$27,160
p2503
V6/7/13
p2504
tp2505
sVWish You Were Here (2013)
p2506
(VEOne
p2507
V$46,347
p2508
V6/7/13
p2509
tp2510
sVTrouble with the Curve
p2511
(VWB
p2512
V$35,763,137
p2513
V9/21/12
p2514
tp2515
sVHansel and Gretel: Witch Hunters
p2516
(VPar.
p2517
V$55,703,475
p2518
V1/25/13
p2519
tp2520
sVMonkey Kingdom
p2521
(VBV
p2522
V$16,413,054
p2523
V4/17/15
p2524
tp2525
sVWorld War Z
p2526
(VPar.
p2527
V$202,359,711
p2528
V6/21/13
p2529
tp2530
sVDemi-Soeur
p2531
(VRialto
p2532
V$943
p2533
V2/7/14
p2534
tp2535
sVHusbands in Goa
p2536
(VUTV
p2537
V$10,135
p2538
V9/21/12
p2539
tp2540
sVBlackbird
p2541
(VImag.
p2542
V$78,400
p2543
V4/24/15
p2544
tp2545
sVA Walk Among the Tombstones
p2546
(VUni.
p2547
V$26,307,600
p2548
V9/19/14
p2549
tp2550
sVWaking Sleeping Beauty
p2551
(VBV
p2552
V$80,741
p2553
V3/26/10
p2554
tp2555
sVThe Spy Next Door
p2556
(VLGF
p2557
V$24,307,086
p2558
V1/15/10
p2559
tp2560
sVAbout Last Night (2014)
p2561
(VSGem
p2562
V$48,637,684
p2563
V2/14/14
p2564
tp2565
sVPassion Play
p2566
(VImag.
p2567
V$3,669
p2568
V5/6/11
p2569
tp2570
sVFree Birds
p2571
(VRela.
p2572
V$55,750,480
p2573
V11/1/13
p2574
tp2575
sVPaul Blart: Mall Cop 2
p2576
(VSony
p2577
V$70,607,328
p2578
V4/17/15
p2579
tp2580
sVThe D Train
p2581
(VIFC
p2582
V$669,688
p2583
V5/8/15
p2584
tp2585
sVThe Sorcerer's Apprentice
p2586
(VBV
p2587
V$63,150,991
p2588
V7/14/10
p2589
tp2590
sVThis Must Be the Place
p2591
(VWein.
p2592
V$143,979
p2593
V11/2/12
p2594
tp2595
sVSaw 3D
p2596
(VLGF
p2597
V$45,710,178
p2598
V10/29/10
p2599
tp2600
sVRowdy Rathore
p2601
(VUTV
p2602
V$777,373
p2603
V6/1/12
p2604
tp2605
sVRed Tails
p2606
(VFox
p2607
V$49,876,377
p2608
V1/20/12
p2609
tp2610
sVStone
p2611
(VOver.
p2612
V$1,810,078
p2613
V10/8/10
p2614
tp2615
sVThe Maze Runner
p2616
(VFox
p2617
V$102,427,862
p2618
V9/19/14
p2619
tp2620
sVBorn to Fly: Elizabeth Streb vs. Gravity
p2621
(VTFC
p2622
V$24,630
p2623
V9/10/14
p2624
tp2625
sVThe Social Network
p2626
(VSony
p2627
V$96,962,694
p2628
V10/1/10
p2629
tp2630
sVThe Road (2012)
p2631
(VFree
p2632
V$92,476
p2633
V5/11/12
p2634
tp2635
sVProject Almanac
p2636
(VPar.
p2637
V$22,348,241
p2638
V1/30/15
p2639
tp2640
sVGame of Thrones (IMAX)
p2641
(VWB
p2642
V$1,896,092
p2643
V1/30/15
p2644
tp2645
sVSherlock Holmes: A Game of Shadows
p2646
(VWB
p2647
V$186,848,418
p2648
V12/16/11
p2649
tp2650
sVUndertow (2010)
p2651
(VTFC
p2652
V$108,620
p2653
V9/17/10
p2654
tp2655
sVThe Dilemma
p2656
(VUni.
p2657
V$48,475,290
p2658
V1/14/11
p2659
tp2660
sVPuss in Boots
p2661
(VP/DW
p2662
V$149,260,504
p2663
V10/28/11
p2664
tp2665
sVHome Run Showdown
p2666
(VImag.
p2667
V$8,824
p2668
V7/27/12
p2669
tp2670
sVBefore You Know It
p2671
(VTFC
p2672
V$6,717
p2673
V5/30/14
p2674
tp2675
sVGo For It
p2676
(VLGF
p2677
V$180,237
p2678
V5/13/11
p2679
tp2680
sVRun All Night
p2681
(VWB
p2682
V$26,461,644
p2683
V3/13/15
p2684
tp2685
sVAbduction
p2686
(VLGF
p2687
V$28,087,155
p2688
V9/23/11
p2689
tp2690
sVAnother Earth
p2691
(VFoxS
p2692
V$1,321,194
p2693
V7/22/11
p2694
tp2695
sVA La Mala
p2696
(VLGF
p2697
V$3,629,842
p2698
V2/27/15
p2699
tp2700
sVRevelation Road 2
p2701
(VFree
p2702
V$4,871
p2703
V7/12/13
p2704
tp2705
sVEk Tha Tiger
p2706
(VYash
p2707
V$2,347,774
p2708
V8/15/12
p2709
tp2710
sVAloha
p2711
(VSony
p2712
V$20,898,564
p2713
V5/29/15
p2714
tp2715
sVThe Change-Up
p2716
(VUni.
p2717
V$37,081,475
p2718
V8/5/11
p2719
tp2720
sVNowhere Boy
p2721
(VWein.
p2722
V$1,457,248
p2723
V10/8/10
p2724
tp2725
sVKnights of Badassdom
p2726
(VEOne
p2727
V$123,854
p2728
V1/21/14
p2729
tp2730
sVNostalgia for the Light
p2731
(VIcar.
p2732
V$156,928
p2733
V1/13/11
p2734
tp2735
sVHesher
p2736
(VWHE
p2737
V$382,946
p2738
V5/13/11
p2739
tp2740
sVThe Last Airbender
p2741
(VPar.
p2742
V$131,772,187
p2743
V7/1/10
p2744
tp2745
sVOz The Great and Powerful
p2746
(VBV
p2747
V$234,911,825
p2748
V3/8/13
p2749
tp2750
sVBully (PG-13)
p2751
(VWein.
p2752
V$3,863,446
p2753
V4/13/12
p2754
tp2755
sVCode Black
p2756
(VLong Shot
p2757
V$190,229
p2758
V6/20/14
p2759
tp2760
sVIron Sky
p2761
(VEOne
p2762
V$122,082
p2763
V7/25/12
p2764
tp2765
sVStand Up Guys
p2766
(VLGF
p2767
V$3,310,031
p2768
V2/1/13
p2769
tp2770
sVReturn to The Hiding Place
p2771
(VSEA
p2772
V$45,405
p2773
V5/23/14
p2774
tp2775
sVSt. Vincent
p2776
(VWein.
p2777
V$44,137,712
p2778
V10/10/14
p2779
tp2780
sVDevil's Due
p2781
(VFox
p2782
V$15,821,461
p2783
V1/17/14
p2784
tp2785
sVBlack Swan
p2786
(VFoxS
p2787
V$106,954,678
p2788
V12/3/10
p2789
tp2790
sVTorn
p2791
(VFC
p2792
V$18,202
p2793
V10/18/13
p2794
tp2795
sVInSpectres
p2796
(VR88
p2797
V$2,207
p2798
V9/5/13
p2799
tp2800
sVThe Five-Year Engagement
p2801
(VUni.
p2802
V$28,835,528
p2803
V4/27/12
p2804
tp2805
sV2 Guns
p2806
(VUni.
p2807
V$75,612,460
p2808
V8/2/13
p2809
tp2810
sVHotel Transylvania
p2811
(VSony
p2812
V$148,313,048
p2813
V9/28/12
p2814
tp2815
sVWatermark
p2816
(VEOne
p2817
V$84,464
p2818
V4/4/14
p2819
tp2820
sVPromised Land (2012)
p2821
(VFocus
p2822
V$7,597,898
p2823
V12/28/12
p2824
tp2825
sVOceans
p2826
(VBV
p2827
V$19,422,319
p2828
V4/22/10
p2829
tp2830
sVWhat to Expect When You're Expecting
p2831
(VLGF
p2832
V$41,152,203
p2833
V5/18/12
p2834
tp2835
sVAfternoon Delight
p2836
(VTFA
p2837
V$174,496
p2838
V8/30/13
p2839
tp2840
sVForks Over Knives
p2841
(VPas.
p2842
V$739,561
p2843
V1/7/11
p2844
tp2845
sVColombiana
p2846
(VTriS
p2847
V$36,665,854
p2848
V8/26/11
p2849
tp2850
sVCountry Strong
p2851
(VSGem
p2852
V$20,218,921
p2853
V12/22/10
p2854
tp2855
sVThe Disappearance of Eleanor Rigby
p2856
(VWein.
p2857
V$587,774
p2858
V9/12/14
p2859
tp2860
sVChef
p2861
(VORF
p2862
V$31,424,003
p2863
V5/9/14
p2864
tp2865
sVThe Beaver
p2866
(VSum.
p2867
V$970,816
p2868
V5/6/11
p2869
tp2870
sVMetallica Through the Never
p2871
(VPH
p2872
V$3,419,967
p2873
V9/27/13
p2874
tp2875
sVThe Lost Medallion
p2876
(VMTE
p2877
V$549,632
p2878
V3/1/13
p2879
tp2880
sVGet Hard
p2881
(VWB
p2882
V$90,411,453
p2883
V3/27/15
p2884
tp2885
sVWater & Power
p2886
(VNS
p2887
V$82,312
p2888
V5/2/14
p2889
tp2890
sVMuppets Most Wanted
p2891
(VBV
p2892
V$51,183,113
p2893
V3/21/14
p2894
tp2895
sVThe Fluffy Movie
p2896
(VORF
p2897
V$2,827,393
p2898
V7/25/14
p2899
tp2900
sVThree Night Stand
p2901
(VFree
p2902
V$4,076
p2903
V1/16/15
p2904
tp2905
sVJack Goes Boating
p2906
(VOver.
p2907
V$541,992
p2908
V9/17/10
p2909
tp2910
sVPlanes: Fire & Rescue
p2911
(VBV
p2912
V$59,165,787
p2913
V7/18/14
p2914
tp2915
sVThe Smurfs 2
p2916
(VSony
p2917
V$71,017,784
p2918
V7/31/13
p2919
tp2920
sV5 Flights Up
p2921
(VFocus
p2922
V$1,020,921
p2923
V5/8/15
p2924
tp2925
sVAnything For Alice
p2926
(VRialto
p2927
V$1,092
p2928
V12/17/14
p2929
tp2930
sVBran Nue Dae
p2931
(VFree
p2932
V$113,568
p2933
V9/10/10
p2934
tp2935
sVDrive (2011)
p2936
(VFD
p2937
V$35,060,689
p2938
V9/16/11
p2939
tp2940
sVKevin Hart: Let Me Explain
p2941
(VLG/S
p2942
V$32,244,051
p2943
V7/3/13
p2944
tp2945
sVThe Miners' Hymns
p2946
(VIcar.
p2947
V$6,051
p2948
V2/8/12
p2949
tp2950
sVUnder the Electric Sky
p2951
(VFocus
p2952
V$207,584
p2953
V5/29/14
p2954
tp2955
sVClosed Circuit
p2956
(VFocus
p2957
V$5,750,401
p2958
V8/28/13
p2959
tp2960
sVSettai
p2961
(VUTV
p2962
V$87,838
p2963
V4/5/13
p2964
tp2965
sVAnswers to Nothing
p2966
(VRAtt.
p2967
V$22,029
p2968
V12/2/11
p2969
tp2970
sVThe Vow
p2971
(VSGem
p2972
V$125,014,030
p2973
V2/10/12
p2974
tp2975
sVNothing Left to Fear
p2976
(VAnch.
p2977
V$7,886
p2978
V10/4/13
p2979
tp2980
sVShahid
p2981
(VUTV
p2982
V$12,153
p2983
V10/18/13
p2984
tp2985
sVA Late Quartet
p2986
(VEOne
p2987
V$1,562,546
p2988
V11/2/12
p2989
tp2990
sVDear John
p2991
(VSGem
p2992
V$80,014,842
p2993
V2/5/10
p2994
tp2995
sVA Little Help
p2996
(VFree
p2997
V$96,868
p2998
V7/22/11
p2999
tp3000
sVInto The Storm
p3001
(VWB
p3002
V$47,602,194
p3003
V8/8/14
p3004
tp3005
sVGreen Zone
p3006
(VUni.
p3007
V$35,053,660
p3008
V3/12/10
p3009
tp3010
sVSupermensch: The Legend of Shep Gordon
p3011
(VRTWC
p3012
V$213,064
p3013
V6/6/14
p3014
tp3015
sVThe Wolverine
p3016
(VFox
p3017
V$132,556,852
p3018
V7/26/13
p3019
tp3020
sVShut Up and Play the Hits
p3021
(VOsci.
p3022
V$510,334
p3023
V7/18/12
p3024
tp3025
sVDiary of a Wimpy Kid: Dog Days
p3026
(VFox
p3027
V$49,008,662
p3028
V8/3/12
p3029
tp3030
sVThe Twilight Saga: Breaking Dawn Part 2
p3031
(VLG/S
p3032
V$292,324,737
p3033
V11/16/12
p3034
tp3035
sVPacific Rim
p3036
(VWB
p3037
V$101,802,906
p3038
V7/12/13
p3039
tp3040
sVThe Twilight Saga: Breaking Dawn Part 1
p3041
(VSum.
p3042
V$281,287,133
p3043
V11/18/11
p3044
tp3045
sVHappy Tears
p3046
(VRAtt.
p3047
V$22,464
p3048
V2/19/10
p3049
tp3050
sVThe Smurfs
p3051
(VSony
p3052
V$142,614,158
p3053
V7/29/11
p3054
tp3055
sVGet On Up
p3056
(VUni.
p3057
V$30,703,100
p3058
V8/1/14
p3059
tp3060
sVDjango Unchained
p3061
(VWein.
p3062
V$162,805,434
p3063
V12/25/12
p3064
tp3065
sVTurbo
p3066
(VFox
p3067
V$83,028,128
p3068
V7/17/13
p3069
tp3070
sVTo Rome with Love
p3071
(VSPC
p3072
V$16,685,867
p3073
V6/22/12
p3074
tp3075
sVSoldiers of Fortune
p3076
(VRAtt.
p3077
V$38,898
p3078
V8/3/12
p3079
tp3080
sVKilling Them Softly
p3081
(VWein.
p3082
V$15,026,056
p3083
V11/30/12
p3084
tp3085
sVPercy Jackson & The Olympians: The Lightning Thief
p3086
(VFox
p3087
V$88,768,303
p3088
V2/12/10
p3089
tp3090
sVAntoine and Antoinette (2013 re-issue)
p3091
(VRialto
p3092
V$9,704
p3093
V9/25/13
p3094
tp3095
sVKeep On Keepin' On
p3096
(VRTWC
p3097
V$163,745
p3098
V9/19/14
p3099
tp3100
sVFrankie & Alice
p3101
(VFree
p3102
V$10,670
p3103
V2011
p3104
tp3105
sVThe Day
p3106
(VAnch.
p3107
V$20,984
p3108
V8/29/12
p3109
tp3110
sVCa$h
p3111
(VRAtt.
p3112
V$46,488
p3113
V3/26/10
p3114
tp3115
sVMy Uncle Rafael
p3116
(VRM
p3117
V$243,616
p3118
V9/21/12
p3119
tp3120
sVMaggie
p3121
(VRAtt.
p3122
V$187,112
p3123
V5/8/15
p3124
tp3125
sVTouchback
p3126
(VAnch.
p3127
V$204,232
p3128
V4/13/12
p3129
tp3130
sVShe's Beautiful When She's Angry
p3131
(VICir
p3132
V$387,472
p3133
V12/5/14
p3134
tp3135
sVThe Music Never Stopped
p3136
(VRAtt.
p3137
V$258,223
p3138
V3/18/11
p3139
tp3140
sVRed 2
p3141
(VLG/S
p3142
V$53,262,560
p3143
V7/19/13
p3144
tp3145
sVLegends of Oz: Dorothy's Return
p3146
(VCE
p3147
V$8,462,027
p3148
V5/9/14
p3149
tp3150
sVGun Hill Road
p3151
(VMFG
p3152
V$148,994
p3153
V8/5/11
p3154
tp3155
sVRaja Natwarlal
p3156
(VUTV
p3157
V$131,105
p3158
V8/29/14
p3159
tp3160
sVOldboy (2013)
p3161
(VFD
p3162
V$2,193,658
p3163
V11/27/13
p3164
tp3165
sVThe East
p3166
(VFoxS
p3167
V$2,301,839
p3168
V5/31/13
p3169
tp3170
sVResident Evil: Retribution
p3171
(VSGem
p3172
V$42,345,531
p3173
V9/14/12
p3174
tp3175
sVPitch Perfect 2
p3176
(VUni.
p3177
V$183,102,250
p3178
V5/15/15
p3179
tp3180
sVHecho En Mexico
p3181
(VLGF
p3182
V$151,133
p3183
V11/30/12
p3184
tp3185
sVYogi Bear
p3186
(VWB
p3187
V$100,246,011
p3188
V12/17/10
p3189
tp3190
sVInterstellar
p3191
(VPar.
p3192
V$188,020,017
p3193
V11/5/14
p3194
tp3195
sVStoker
p3196
(VFoxS
p3197
V$1,714,221
p3198
V3/1/13
p3199
tp3200
sVThe Girl Who Played with Fire
p3201
(VMBox
p3202
V$7,638,241
p3203
V7/9/10
p3204
tp3205
sV21 and Over
p3206
(VRela.
p3207
V$25,682,380
p3208
V3/1/13
p3209
tp3210
sVBig Eyes
p3211
(VWein.
p3212
V$14,482,031
p3213
V12/25/14
p3214
tp3215
sVWalking with Dinosaurs
p3216
(VFox
p3217
V$36,076,121
p3218
V12/20/13
p3219
tp3220
sVThe Devil Inside
p3221
(VPar.
p3222
V$53,261,944
p3223
V1/6/12
p3224
tp3225
sVChimpanzee
p3226
(VBV
p3227
V$28,972,764
p3228
V4/20/12
p3229
tp3230
sVNeed for Speed
p3231
(VBV
p3232
V$43,577,636
p3233
V3/14/14
p3234
tp3235
sVMachete
p3236
(VFox
p3237
V$26,593,646
p3238
V9/3/10
p3239
tp3240
sVThaandavam
p3241
(VUTV
p3242
V$213,476
p3243
V9/28/12
p3244
tp3245
sVThe Chronicles of Narnia: The Voyage of the Dawn Treader
p3246
(VFox
p3247
V$104,386,950
p3248
V12/10/10
p3249
tp3250
sVWhat Women Want (Wo Zhi Nu Run Xin) 
p3251
(VCL
p3252
V$123,526
p3253
V2/3/11
p3254
tp3255
sVThe Last Mountain
p3256
(VDa.
p3257
V$122,961
p3258
V6/3/11
p3259
tp3260
sVSilent House
p3261
(VORF
p3262
V$12,754,783
p3263
V3/9/12
p3264
tp3265
sVHow to Train Your Dragon
p3266
(VP/DW
p3267
V$217,581,231
p3268
V3/26/10
p3269
tp3270
sVTed 2
p3271
(VUni.
p3272
V$72,477,310
p3273
V6/26/15
p3274
tp3275
sVGodzilla (2014)
p3276
(VWB
p3277
V$200,676,069
p3278
V5/16/14
p3279
tp3280
sVThe Dictator
p3281
(VPar.
p3282
V$59,650,222
p3283
V5/16/12
p3284
tp3285
sVC.O.G.
p3286
(VScre.
p3287
V$55,301
p3288
V9/20/13
p3289
tp3290
sVThe Roommate
p3291
(VSGem
p3292
V$37,300,107
p3293
V2/4/11
p3294
tp3295
sVThink Like a Man Too
p3296
(VSGem
p3297
V$65,182,182
p3298
V6/20/14
p3299
tp3300
sVJobs
p3301
(VORF
p3302
V$16,131,410
p3303
V8/16/13
p3304
tp3305
sVLone Survivor
p3306
(VUni.
p3307
V$125,095,601
p3308
V12/25/13
p3309
tp3310
sVYour Highness
p3311
(VUni.
p3312
V$21,596,445
p3313
V4/8/11
p3314
tp3315
sVScatter My Ashes at Bergdorf's
p3316
(VEOne
p3317
V$518,342
p3318
V5/3/13
p3319
tp3320
sVMargaret
p3321
(VFoxS
p3322
V$46,495
p3323
V9/30/11
p3324
tp3325
sVAnonymous
p3326
(VSony
p3327
V$4,463,292
p3328
V10/28/11
p3329
tp3330
sVIn the Land of Blood and Honey
p3331
(VFD
p3332
V$303,877
p3333
V12/23/11
p3334
tp3335
sVMan on a Ledge
p3336
(VLG/S
p3337
V$18,620,000
p3338
V1/27/12
p3339
tp3340
sVThe Watch
p3341
(VFox
p3342
V$35,353,000
p3343
V7/27/12
p3344
tp3345
sVHitchcock
p3346
(VFoxS
p3347
V$6,008,677
p3348
V11/23/12
p3349
tp3350
sVA Long Way Off
p3351
(VMVE
p3352
V$30,104
p3353
V5/16/14
p3354
tp3355
sVHeropanti
p3356
(VUTV
p3357
V$63,649
p3358
V5/23/14
p3359
tp3360
sVDark Star: H.R. Giger's World
p3361
(VIcar.
p3362
V$45,743
p3363
V5/15/15
p3364
tp3365
sVVettai
p3366
(VUTV
p3367
V$204,373
p3368
V1/13/12
p3369
tp3370
sVPredators
p3371
(VFox
p3372
V$52,000,688
p3373
V7/9/10
p3374
tp3375
sVThe Other Dream Team
p3376
(VTFA
p3377
V$135,228
p3378
V9/28/12
p3379
tp3380
sVBrave
p3381
(VBV
p3382
V$237,283,207
p3383
V6/22/12
p3384
tp3385
sVGrown Ups 2
p3386
(VSony
p3387
V$133,668,525
p3388
V7/12/13
p3389
tp3390
sVKingsman: The Secret Service
p3391
(VFox
p3392
V$128,261,724
p3393
V2/13/15
p3394
tp3395
sVFun Size
p3396
(VPar.
p3397
V$9,409,538
p3398
V10/26/12
p3399
tp3400
sVGirl Rising
p3401
(VGathr
p3402
V$1,727,259
p3403
V3/7/13
p3404
tp3405
sVAssaulted: Civil Rights Under Fire
p3406
(VHTR
p3407
V$6,905
p3408
V6/20/13
p3409
tp3410
sVPrince of Persia: The Sands of Time
p3411
(VBV
p3412
V$90,759,676
p3413
V5/28/10
p3414
tp3415
sVWe Bought a Zoo
p3416
(VFox
p3417
V$75,624,550
p3418
V12/23/11
p3419
tp3420
sVChico & Rita
p3421
(VGK
p3422
V$350,524
p3423
V2/10/12
p3424
tp3425
sVThis Ain't No Mouse Music!
p3426
(VArgo.
p3427
V$34,754
p3428
V9/19/14
p3429
tp3430
sVEl Milagro De Marcelino Pan
p3431
(VGPR
p3432
V$18,193
p3433
V10/26/12
p3434
tp3435
sVThe Town
p3436
(VWB
p3437
V$92,186,262
p3438
V9/17/10
p3439
tp3440
sVJohn Wick
p3441
(VLG/S
p3442
V$43,037,835
p3443
V10/24/14
p3444
tp3445
sVDiary of a Wimpy Kid: Rodrick Rules
p3446
(VFox
p3447
V$52,698,535
p3448
V3/25/11
p3449
tp3450
sVSeeking a Friend for the End of the World
p3451
(VFocus
p3452
V$7,078,738
p3453
V6/22/12
p3454
tp3455
sVThe Man with the Iron Fists
p3456
(VUni.
p3457
V$15,634,090
p3458
V11/2/12
p3459
tp3460
sVSinbad: The Fifth Voyage
p3461
(VGFl
p3462
V$159,862
p3463
V2/7/14
p3464
tp3465
sVNow You See Me
p3466
(VLG/S
p3467
V$117,723,989
p3468
V5/31/13
p3469
tp3470
sVDysfunctional Friends
p3471
(VDTP
p3472
V$13,546
p3473
V2/3/12
p3474
tp3475
sVFilly Brown
p3476
(VLGF
p3477
V$2,850,357
p3478
V4/19/13
p3479
tp3480
sVAll is Bright
p3481
(VAnch.
p3482
V$4,556
p3483
V10/4/13
p3484
tp3485
sVLuv Shuv Tey Chicken Khurana
p3486
(VUTV
p3487
V$143,507
p3488
V11/2/12
p3489
tp3490
sVI Spit on Your Grave
p3491
(VAnch.
p3492
V$93,051
p3493
V10/8/10
p3494
tp3495
sVMonsters University
p3496
(VBV
p3497
V$268,492,764
p3498
V6/21/13
p3499
tp3500
sVMidnight in Paris
p3501
(VSPC
p3502
V$56,817,045
p3503
V5/20/11
p3504
tp3505
sVYoung Adult
p3506
(VPar.
p3507
V$16,311,571
p3508
V12/9/11
p3509
tp3510
sVCassadaga
p3511
(VAD
p3512
V$2,544
p3513
V10/11/13
p3514
tp3515
sVYou Again
p3516
(VBV
p3517
V$25,702,053
p3518
V9/24/10
p3519
tp3520
sVMortdecai
p3521
(VLGF
p3522
V$7,696,134
p3523
V1/23/15
p3524
tp3525
sVOur Family Wedding
p3526
(VFoxS
p3527
V$20,255,281
p3528
V3/12/10
p3529
tp3530
sVThe Expendables 2
p3531
(VLGF
p3532
V$85,028,192
p3533
V8/17/12
p3534
tp3535
sVNo Strings Attached
p3536
(VPar.
p3537
V$70,662,220
p3538
V1/21/11
p3539
tp3540
sVThe Lord of the Rings: The Two Towers (2011 re-release)
p3541
(VWB
p3542
V$764,607
p3543
V6/21/11
p3544
tp3545
sV50 to 1
p3546
(V10F
p3547
V$1,064,454
p3548
V3/21/14
p3549
tp3550
sVTanu Weds Manu Returns
p3551
(VEros
p3552
V$3,044,347
p3553
V5/22/15
p3554
tp3555
sVSplice
p3556
(VWB
p3557
V$17,010,170
p3558
V6/4/10
p3559
tp3560
sVThe Lords of Salem
p3561
(VAnch.
p3562
V$1,165,882
p3563
V4/19/13
p3564
tp3565
sVDr. Seuss' The Lorax
p3566
(VUni.
p3567
V$214,030,500
p3568
V3/2/12
p3569
tp3570
sVRadio Free Albemuth
p3571
(VFree
p3572
V$9,365
p3573
V6/27/14
p3574
tp3575
sVGladiators of Rome
p3576
(VVPD
p3577
V$8,201
p3578
V11/11/14
p3579
tp3580
sVIndigo Children
p3581
(VSE
p3582
V$2,621
p3583
V1/17/14
p3584
tp3585
sVBig Miracle
p3586
(VUni.
p3587
V$20,157,300
p3588
V2/3/12
p3589
tp3590
sVSaheb Biwi Aur Gangster
p3591
(VUTV
p3592
V$14,231
p3593
V9/30/11
p3594
tp3595
sVBatman Begins (2012 re-release)
p3596
(VWB
p3597
V$1,508,658
p3598
V7/19/12
p3599
tp3600
sVSafe Haven
p3601
(VRela.
p3602
V$71,349,120
p3603
V2/14/13
p3604
tp3605
sV71 Into the Fire
p3606
(VJS
p3607
V$176,638
p3608
V7/30/10
p3609
tp3610
sVThe City Dark
p3611
(VArgo.
p3612
V$9,269
p3613
V1/18/12
p3614
tp3615
sVThe Expendables
p3616
(VLGF
p3617
V$103,068,524
p3618
V8/13/10
p3619
tp3620
sVThe Ides of March
p3621
(VSony
p3622
V$40,962,534
p3623
V10/7/11
p3624
tp3625
sVLife as We Know It
p3626
(VWB
p3627
V$53,374,681
p3628
V10/8/10
p3629
tp3630
sVAmerica (2014)
p3631
(VLGF
p3632
V$14,444,502
p3633
V6/27/14
p3634
tp3635
sVThe Remaining
p3636
(VTriu
p3637
V$1,169,603
p3638
V9/5/14
p3639
tp3640
sVHow Do You Know
p3641
(VSony
p3642
V$30,212,620
p3643
V12/17/10
p3644
tp3645
sVBitch Slap
p3646
(VFree
p3647
V$17,365
p3648
V1/8/10
p3649
tp3650
sVUn Flic (2013 re-release)
p3651
(VRialto
p3652
V$48,040
p3653
V4/19/13
p3654
tp3655
sVHop
p3656
(VUni.
p3657
V$108,085,305
p3658
V4/1/11
p3659
tp3660
sVStanding Ovation
p3661
(VRM
p3662
V$531,806
p3663
V7/16/10
p3664
tp3665
sVDawn of the Planet of the Apes
p3666
(VFox
p3667
V$208,545,589
p3668
V7/11/14
p3669
tp3670
sVStep Up Revolution
p3671
(VLG/S
p3672
V$35,074,677
p3673
V7/27/12
p3674
tp3675
sVLove & Mercy
p3676
(VRAtt.
p3677
V$11,326,741
p3678
V6/5/15
p3679
tp3680
sVThe Call
p3681
(VTriS
p3682
V$51,872,378
p3683
V3/15/13
p3684
tp3685
sVUnstoppable
p3686
(VFox
p3687
V$81,562,942
p3688
V11/12/10
p3689
tp3690
sVThe Bling Ring
p3691
(VA24
p3692
V$5,845,732
p3693
V6/14/13
p3694
tp3695
sVBeauty and the Beast (3D)
p3696
(VBV
p3697
V$47,617,067
p3698
V1/13/12
p3699
tp3700
sVWe Are What We Are
p3701
(VEOne
p3702
V$81,381
p3703
V9/27/13
p3704
tp3705
sVThe Great Invisible
p3706
(VRTWC
p3707
V$11,428
p3708
V10/29/14
p3709
tp3710
sVProject X
p3711
(VWB
p3712
V$54,731,865
p3713
V3/2/12
p3714
tp3715
sVAfternoon of a Faun
p3716
(VKL
p3717
V$172,450
p3718
V2/5/14
p3719
tp3720
sVDracula Untold
p3721
(VUni.
p3722
V$56,280,355
p3723
V10/10/14
p3724
tp3725
sVFor a Good Time, Call... 
p3726
(VFocus
p3727
V$1,251,749
p3728
V8/31/12
p3729
tp3730
sVAnchorman 2: The Legend Continues
p3731
(VPar.
p3732
V$125,168,368
p3733
V12/18/13
p3734
tp3735
sVSpinning Plates
p3736
(VTFA
p3737
V$112,449
p3738
V10/25/13
p3739
tp3740
sVThe Perfect Game
p3741
(VIW
p3742
V$1,037,071
p3743
V4/16/10
p3744
tp3745
sVShutter Island
p3746
(VPar.
p3747
V$128,012,934
p3748
V2/19/10
p3749
tp3750
sVWanderlust
p3751
(VUni.
p3752
V$17,450,535
p3753
V2/24/12
p3754
tp3755
sVNanny McPhee Returns
p3756
(VUni.
p3757
V$29,011,215
p3758
V8/20/10
p3759
tp3760
sVUnknown
p3761
(VWB
p3762
V$63,686,397
p3763
V2/18/11
p3764
tp3765
sVHighway (2014)
p3766
(VUTV
p3767
V$529,136
p3768
V2/21/14
p3769
tp3770
sVResident Evil: Afterlife
p3771
(VSGem
p3772
V$60,128,566
p3773
V9/10/10
p3774
tp3775
sVCitizenfour
p3776
(VRTWC
p3777
V$2,799,318
p3778
V10/24/14
p3779
tp3780
sVHome (2015)
p3781
(VFox
p3782
V$175,908,348
p3783
V3/27/15
p3784
tp3785
sVJust Wright
p3786
(VFoxS
p3787
V$21,540,363
p3788
V5/14/10
p3789
tp3790
sVMarmaduke
p3791
(VFox
p3792
V$33,644,788
p3793
V6/4/10
p3794
tp3795
sVDiary of a Wimpy Kid
p3796
(VFox
p3797
V$64,003,625
p3798
V3/19/10
p3799
tp3800
sVGulliver's Travels
p3801
(VFox
p3802
V$42,779,261
p3803
V12/25/10
p3804
tp3805
sVX-Men: First Class
p3806
(VFox
p3807
V$146,408,305
p3808
V6/3/11
p3809
tp3810
sVKalakalappu@Masala Cafe
p3811
(VUTV
p3812
V$30,949
p3813
V5/11/12
p3814
tp3815
sVAmerican Hustle
p3816
(VSony
p3817
V$150,117,807
p3818
V12/13/13
p3819
tp3820
sVCartas a Elena
p3821
(VFree
p3822
V$8,511
p3823
V6/8/12
p3824
tp3825
sVThe Hangover Part II
p3826
(VWB
p3827
V$254,464,305
p3828
V5/26/11
p3829
tp3830
sVNo Eres Tu, Soy Yo
p3831
(VLGF
p3832
V$1,339,911
p3833
V4/8/11
p3834
tp3835
sVStep Up 3-D
p3836
(VBV
p3837
V$42,400,223
p3838
V8/6/10
p3839
tp3840
sVThe Hobbit: The Battle of the Five Armies
p3841
(VWB
p3842
V$255,119,788
p3843
V12/17/14
p3844
tp3845
sVSalt
p3846
(VSony
p3847
V$118,311,368
p3848
V7/23/10
p3849
tp3850
sVHot Tub Time Machine
p3851
(VMGM
p3852
V$50,287,556
p3853
V3/26/10
p3854
tp3855
sVThe Best Exotic Marigold Hotel
p3856
(VFoxS
p3857
V$46,412,041
p3858
V5/4/12
p3859
tp3860
sVNoah
p3861
(VPar.
p3862
V$101,200,044
p3863
V3/28/14
p3864
tp3865
sVAfter The Ball
p3866
(VFree
p3867
V$161,820
p3868
V2/27/15
p3869
tp3870
sVNight at the Museum: Secret of the Tomb
p3871
(VFox
p3872
V$113,746,621
p3873
V12/19/14
p3874
tp3875
sVHemingway's Garden of Eden
p3876
(VRAtt.
p3877
V$22,083
p3878
V12/10/10
p3879
tp3880
sVThe Grey
p3881
(VORF
p3882
V$51,580,236
p3883
V1/27/12
p3884
tp3885
sVSan Andreas
p3886
(VWB
p3887
V$150,180,261
p3888
V5/29/15
p3889
tp3890
sVTo the Arctic (IMAX)
p3891
(VWB
p3892
V$14,198,636
p3893
V4/20/12
p3894
tp3895
sVDesert Dancer
p3896
(VRela.
p3897
V$155,271
p3898
V4/10/15
p3899
tp3900
sVAll Is Lost
p3901
(VRAtt.
p3902
V$6,263,670
p3903
V10/18/13
p3904
tp3905
sVThe Wrecking Crew
p3906
(VMagn.
p3907
V$798,295
p3908
V3/13/15
p3909
tp3910
sVWinter's Tale
p3911
(VWB
p3912
V$12,600,231
p3913
V2/14/14
p3914
tp3915
sVA Letter to Momo
p3916
(VGK
p3917
V$71,712
p3918
V7/23/14
p3919
tp3920
sVBlack Sea
p3921
(VFocus
p3922
V$1,171,559
p3923
V1/23/15
p3924
tp3925
sVAlone Yet Not Alone
p3926
(VS/IMA
p3927
V$887,851
p3928
V9/27/13
p3929
tp3930
sVCalvary
p3931
(VFoxS
p3932
V$3,600,006
p3933
V8/1/14
p3934
tp3935
sVThe Bodyguard (2012 re-release)
p3936
(VWB
p3937
V$61,020
p3938
V3/28/12
p3939
tp3940
sVSomething From Nothing: The Art of Rap
p3941
(VIM
p3942
V$288,312
p3943
V6/15/12
p3944
tp3945
sVKaty Perry: Part of Me
p3946
(VPar.
p3947
V$25,326,071
p3948
V7/5/12
p3949
tp3950
sVFrankie & Alice (2014)
p3951
(VLGF
p3952
V$695,876
p3953
V4/4/14
p3954
tp3955
sVKill the Irishman
p3956
(VAnch.
p3957
V$1,188,194
p3958
V3/11/11
p3959
tp3960
sVHubble 3D
p3961
(VWB
p3962
V$46,370,134
p3963
V3/19/10
p3964
tp3965
sVWho Took Johnny
p3966
(VRum.
p3967
V$16,595
p3968
V4/24/15
p3969
tp3970
sVThe Family (2013)
p3971
(VRela.
p3972
V$36,918,811
p3973
V9/13/13
p3974
tp3975
sVKiller Elite
p3976
(VORF
p3977
V$25,124,966
p3978
V9/23/11
p3979
tp3980
sVThe Odd Life of Timothy Green
p3981
(VBV
p3982
V$51,854,875
p3983
V8/15/12
p3984
tp3985
sVDevil
p3986
(VUni.
p3987
V$33,601,190
p3988
V9/17/10
p3989
tp3990
sVPlanes
p3991
(VBV
p3992
V$90,288,712
p3993
V8/9/13
p3994
tp3995
sVParaNorman
p3996
(VFocus
p3997
V$56,003,051
p3998
V8/17/12
p3999
tp4000
sVMen, Women & Children
p4001
(VPar.
p4002
V$705,908
p4003
V10/1/14
p4004
tp4005
sVThe Secret of Kells
p4006
(VGK
p4007
V$676,775
p4008
V3/5/10
p4009
tp4010
sVExtremely Loud & Incredibly Close
p4011
(VWB
p4012
V$31,847,881
p4013
V12/25/11
p4014
tp4015
sVKochadaiiyaan
p4016
(VEros
p4017
V$817,192
p4018
V5/23/14
p4019
tp4020
sVCircumstance
p4021
(VRAtt.
p4022
V$454,121
p4023
V8/26/11
p4024
tp4025
sVDespicable Me 2
p4026
(VUni.
p4027
V$368,061,265
p4028
V7/3/13
p4029
tp4030
sVPeople Like Us
p4031
(VBV
p4032
V$12,434,778
p4033
V6/29/12
p4034
tp4035
sVMinions
p4036
(VUni.
p4037
V$128,664,415
p4038
V7/10/15
p4039
tp4040
sVDeitrick Haddon's A Beautiful Soul
p4041
(VTMF&RE
p4042
V$54,008
p4043
V5/4/12
p4044
tp4045
sVThe Adventures of Tintin
p4046
(VPar.
p4047
V$77,591,831
p4048
V12/21/11
p4049
tp4050
sVDark Skies
p4051
(VW/Dim.
p4052
V$17,418,667
p4053
V2/22/13
p4054
tp4055
sVTower Heist
p4056
(VUni.
p4057
V$78,046,570
p4058
V11/4/11
p4059
tp4060
sVWar Horse
p4061
(VBV
p4062
V$79,884,879
p4063
V12/25/11
p4064
tp4065
sVABCD (Any Body Can Dance) 2
p4066
(VUTV
p4067
V$889,696
p4068
V6/19/15
p4069
tp4070
sVOfficer Down
p4071
(VAnch.
p4072
V$1,463
p4073
V1/18/13
p4074
tp4075
sVChennai Express
p4076
(VUTV
p4077
V$5,307,960
p4078
V8/8/13
p4079
tp4080
sVThe Pretty One
p4081
(VDa.
p4082
V$13,769
p4083
V2/7/14
p4084
tp4085
sVWords and Pictures
p4086
(VRAtt.
p4087
V$2,171,257
p4088
V5/23/14
p4089
tp4090
sVThe Playroom
p4091
(VFree
p4092
V$5,964
p4093
V4/5/13
p4094
tp4095
sVRaajneeti
p4096
(VUTV
p4097
V$1,514,558
p4098
V6/4/10
p4099
tp4100
sVAtlas Shrugged: Part I
p4101
(VRM
p4102
V$4,627,375
p4103
V4/15/11
p4104
tp4105
sVIris (2015)
p4106
(VMagn.
p4107
V$1,252,086
p4108
V4/29/15
p4109
tp4110
sVKung Fu Panda 2
p4111
(VP/DW
p4112
V$165,249,063
p4113
V5/26/11
p4114
tp4115
sVSnow Flower and the Secret Fan
p4116
(VFoxS
p4117
V$1,348,205
p4118
V7/15/11
p4119
tp4120
sVWin Win
p4121
(VFoxS
p4122
V$10,179,275
p4123
V3/18/11
p4124
tp4125
sVA Good Day to Die Hard
p4126
(VFox
p4127
V$67,349,198
p4128
V2/14/13
p4129
tp4130
sVDaylight (2011)
p4131
(VCP
p4132
V$4,171
p4133
V7/15/11
p4134
tp4135
sVN'Secure
p4136
(VFree
p4137
V$2,595,644
p4138
V10/15/10
p4139
tp4140
sVFootloose (2011)
p4141
(VPar.
p4142
V$51,802,742
p4143
V10/14/11
p4144
tp4145
sVHeroine
p4146
(VUTV
p4147
V$598,668
p4148
V9/21/12
p4149
tp4150
sVThe Expendables 3
p4151
(VLGF
p4152
V$39,322,544
p4153
V8/15/14
p4154
tp4155
sVGirl Most Likely
p4156
(VRAtt.
p4157
V$1,378,591
p4158
V7/19/13
p4159
tp4160
sVHeaven is for Real
p4161
(VTriS
p4162
V$91,443,253
p4163
V4/16/14
p4164
tp4165
sVNebraska
p4166
(VPar.
p4167
V$17,654,912
p4168
V11/15/13
p4169
tp4170
sVElysium
p4171
(VTriS
p4172
V$93,050,117
p4173
V8/9/13
p4174
tp4175
sVSatyagraha
p4176
(VUTV
p4177
V$738,525
p4178
V8/30/13
p4179
tp4180
sVThe Apparition
p4181
(VWB
p4182
V$4,936,819
p4183
V8/24/12
p4184
tp4185
sVMaleficent
p4186
(VBV
p4187
V$241,410,378
p4188
V5/30/14
p4189
tp4190
sVThat's My Boy
p4191
(VSony
p4192
V$36,931,089
p4193
V6/15/12
p4194
tp4195
sVRed State
p4196
(VSMod
p4197
V$1,104,682
p4198
V3/5/11
p4199
tp4200
sVPlaying for Keeps
p4201
(VFD
p4202
V$13,102,272
p4203
V12/7/12
p4204
tp4205
sVGhost Rider: Spirit of Vengeance
p4206
(VSony
p4207
V$51,774,002
p4208
V2/17/12
p4209
tp4210
sVRepo Men
p4211
(VUni.
p4212
V$13,794,835
p4213
V3/19/10
p4214
tp4215
sVImmortals
p4216
(VRela.
p4217
V$83,504,017
p4218
V11/11/11
p4219
tp4220
sVStar Trek Into Darkness
p4221
(VPar.
p4222
V$228,778,661
p4223
V5/16/13
p4224
tp4225
sVThe Darkest Hour
p4226
(VSum.
p4227
V$21,443,494
p4228
V12/25/11
p4229
tp4230
sVBig Hero 6
p4231
(VBV
p4232
V$222,527,828
p4233
V11/7/14
p4234
tp4235
sVOur Idiot Brother
p4236
(VWein.
p4237
V$24,816,118
p4238
V8/26/11
p4239
tp4240
sVAt Middleton
p4241
(VAnch.
p4242
V$53,837
p4243
V1/31/14
p4244
tp4245
sVThe Three Musketeers (2011)
p4246
(VSum.
p4247
V$20,374,484
p4248
V10/21/11
p4249
tp4250
sVThe Ultimate Life
p4251
(VHTR
p4252
V$1,327,149
p4253
V9/6/13
p4254
tp4255
sVThe Grand Seduction
p4256
(VEOne
p4257
V$3,430,018
p4258
V5/30/14
p4259
tp4260
sVDom Hemingway
p4261
(VFoxS
p4262
V$523,511
p4263
V4/2/14
p4264
tp4265
sVBlue Like Jazz
p4266
(VRAtt.
p4267
V$595,018
p4268
V4/13/12
p4269
tp4270
sVProject Nim
p4271
(VRAtt.
p4272
V$411,184
p4273
V7/8/11
p4274
tp4275
sVVeronica Mars
p4276
(VWB
p4277
V$3,322,127
p4278
V3/14/14
p4279
tp4280
sVChappie
p4281
(VSony
p4282
V$31,569,268
p4283
V3/6/15
p4284
tp4285
sVFifty Shades of Grey
p4286
(VUni.
p4287
V$166,167,230
p4288
V2/13/15
p4289
tp4290
sVBroken City
p4291
(VFox
p4292
V$19,701,164
p4293
V1/18/13
p4294
tp4295
sVThe Bay
p4296
(VRAtt.
p4297
V$30,668
p4298
V11/2/12
p4299
tp4300
sVThe Heart Specialist
p4301
(VFree
p4302
V$1,103,037
p4303
V1/14/11
p4304
tp4305
sVThe Wolf of Wall Street
p4306
(VPar.
p4307
V$116,900,694
p4308
V12/25/13
p4309
tp4310
sVMeet the Mormons
p4311
(VPurd.
p4312
V$6,047,363
p4313
V10/10/14
p4314
tp4315
sVRace 2
p4316
(VUTV
p4317
V$1,579,940
p4318
V1/25/13
p4319
tp4320
sVBlack Souls (Anime Nere)
p4321
(VAlc
p4322
V$101,088
p4323
V4/10/15
p4324
tp4325
sVEat Pray Love
p4326
(VSony
p4327
V$80,574,010
p4328
V8/13/10
p4329
tp4330
sVThanks for Sharing
p4331
(VRAtt.
p4332
V$1,065,881
p4333
V9/20/13
p4334
tp4335
sVGrassroots
p4336
(VGold.
p4337
V$12,356
p4338
V6/22/12
p4339
tp4340
sVSavannah
p4341
(VKE
p4342
V$37,240
p4343
V8/23/13
p4344
tp4345
sVThe Good Guy
p4346
(VRAtt.
p4347
V$100,688
p4348
V2/19/10
p4349
tp4350
sVAfrican Cats
p4351
(VBV
p4352
V$15,428,747
p4353
V4/22/11
p4354
tp4355
sVArt of the Steal
p4356
(VRTWC
p4357
V$64,065
p4358
V3/14/14
p4359
tp4360
sVSabotage (2014)
p4361
(VORF
p4362
V$10,508,518
p4363
V3/28/14
p4364
tp4365
sVChance Pe Dance
p4366
(VUTV
p4367
V$168,643
p4368
V1/15/10
p4369
tp4370
sVHorrible Bosses 2
p4371
(VWB
p4372
V$54,445,357
p4373
V11/26/14
p4374
tp4375
sV10 Years
p4376
(VAnch.
p4377
V$203,373
p4378
V9/14/12
p4379
tp4380
sVNo One Killed Jessica
p4381
(VUTV
p4382
V$440,525
p4383
V1/7/11
p4384
tp4385
sVMud
p4386
(VRAtt.
p4387
V$21,590,086
p4388
V4/26/13
p4389
tp4390
sV13 Sins
p4391
(VRTWC
p4392
V$13,809
p4393
V4/18/14
p4394
tp4395
sVStill Alice
p4396
(VSPC
p4397
V$18,754,371
p4398
V1/16/15
p4399
tp4400
sVIf I Stay
p4401
(VWB
p4402
V$50,474,843
p4403
V8/22/14
p4404
tp4405
sVMillion Dollar Arm
p4406
(VBV
p4407
V$36,457,627
p4408
V5/16/14
p4409
tp4410
sVThe Great Gatsby (2013)
p4411
(VWB
p4412
V$144,840,419
p4413
V5/10/13
p4414
tp4415
sVContagion
p4416
(VWB
p4417
V$75,658,097
p4418
V9/9/11
p4419
tp4420
sVTinker, Tailor, Soldier, Spy
p4421
(VFocus
p4422
V$24,149,393
p4423
V12/9/11
p4424
tp4425
sVFlipped
p4426
(VWB
p4427
V$1,755,212
p4428
V8/6/10
p4429
tp4430
sVIt's Kind of a Funny Story
p4431
(VFocus
p4432
V$6,363,628
p4433
V10/8/10
p4434
tp4435
sVMax et les Ferrailleurs (Max and the Junkmen) (2012 re-release)
p4436
(VRialto
p4437
V$35,387
p4438
V8/10/12
p4439
tp4440
sVDespicable Me
p4441
(VUni.
p4442
V$251,513,985
p4443
V7/9/10
p4444
tp4445
sVJurassic World
p4446
(VUni.
p4447
V$592,840,220
p4448
V6/12/15
p4449
tp4450
sVCrazy on the Outside
p4451
(VFree
p4452
V$88,335
p4453
V1/8/10
p4454
tp4455
sVKhoobsurat
p4456
(VUTV
p4457
V$710,508
p4458
V9/19/14
p4459
tp4460
sV35 and Ticking
p4461
(VImag.
p4462
V$113,794
p4463
V5/20/11
p4464
tp4465
sVBlack or White
p4466
(VRela.
p4467
V$21,571,189
p4468
V1/30/15
p4469
tp4470
sVThe Last 5 Years
p4471
(VRTWC
p4472
V$145,427
p4473
V2/13/15
p4474
tp4475
sVPastorela
p4476
(VLGF
p4477
V$161,194
p4478
V12/2/11
p4479
tp4480
sVA Nightmare on Elm Street (2010)
p4481
(VWB (NL)
p4482
V$63,075,011
p4483
V4/30/10
p4484
tp4485
sVFrankenweenie
p4486
(VBV
p4487
V$35,291,068
p4488
V10/5/12
p4489
tp4490
sVBuen Dia, Ramon
p4491
(VFIP
p4492
V$154,356
p4493
V1/30/15
p4494
tp4495
sVLUV
p4496
(VIM
p4497
V$156,996
p4498
V1/18/13
p4499
tp4500
sVHugo
p4501
(VPar.
p4502
V$73,864,507
p4503
V11/23/11
p4504
tp4505
sV2 States
p4506
(VUTV
p4507
V$2,238,174
p4508
V4/18/14
p4509
tp4510
sVResurrect Dead: The Mystery of the Toynbee Tiles
p4511
(VArgo.
p4512
V$21,242
p4513
V9/2/11
p4514
tp4515
sVTake Me Home Tonight
p4516
(VRela.
p4517
V$6,928,068
p4518
V3/4/11
p4519
tp4520
sVSelma
p4521
(VPar.
p4522
V$52,076,908
p4523
V12/25/14
p4524
tp4525
sVBlackhat
p4526
(VUni.
p4527
V$7,889,395
p4528
V1/16/15
p4529
tp4530
sVTees Maar Khan
p4531
(VUTV
p4532
V$1,076,443
p4533
V12/22/10
p4534
tp4535
sVArthur Christmas
p4536
(VSony
p4537
V$46,462,469
p4538
V11/23/11
p4539
tp4540
sVWaiting for "Superman"
p4541
(VParV
p4542
V$6,417,135
p4543
V9/24/10
p4544
tp4545
sVThe Loft
p4546
(VORF
p4547
V$6,002,684
p4548
V1/30/15
p4549
tp4550
sVBefore Midnight
p4551
(VSPC
p4552
V$8,114,627
p4553
V5/24/13
p4554
tp4555
sVSanctum
p4556
(VUni.
p4557
V$23,209,310
p4558
V2/4/11
p4559
tp4560
sVThe Tree of Life
p4561
(VFoxS
p4562
V$13,303,319
p4563
V5/27/11
p4564
tp4565
sVThe Hobbit: An Unexpected Journey
p4566
(VWB
p4567
V$303,003,568
p4568
V12/14/12
p4569
tp4570
sVRio 2
p4571
(VFox
p4572
V$131,538,435
p4573
V4/11/14
p4574
tp4575
sVThe Black Waters of Echo's Pond
p4576
(VPM
p4577
V$224,409
p4578
V4/9/10
p4579
tp4580
sVMeet Monica Velour
p4581
(VAnch.
p4582
V$33,042
p4583
V4/8/11
p4584
tp4585
sVX-Men: Days of Future Past
p4586
(VFox
p4587
V$233,921,534
p4588
V5/23/14
p4589
tp4590
sVThe Kids Are All Right
p4591
(VFocus
p4592
V$20,811,365
p4593
V7/9/10
p4594
tp4595
sVZokkomon
p4596
(VUTV
p4597
V$2,815
p4598
V4/22/11
p4599
tp4600
sVMr. X
p4601
(VFIP
p4602
V$44,995
p4603
V4/17/15
p4604
tp4605
sVParental Guidance
p4606
(VFox
p4607
V$77,267,296
p4608
V12/25/12
p4609
tp4610
sVThey Come to America
p4611
(VC/360
p4612
V$3,775
p4613
V3/31/12
p4614
tp4615
sVTyler Perry's Good Deeds
p4616
(VLGF
p4617
V$35,025,791
p4618
V2/24/12
p4619
tp4620
sVLovely Molly
p4621
(VImag.
p4622
V$18,464
p4623
V5/18/12
p4624
tp4625
sVAlpha and Omega
p4626
(VLGF
p4627
V$25,107,267
p4628
V9/17/10
p4629
tp4630
sVExtraordinary Measures
p4631
(VCBS
p4632
V$12,068,313
p4633
V1/22/10
p4634
tp4635
sVInchAllah (U.S. only)
p4636
(VEOne
p4637
V$9,840
p4638
V8/16/13
p4639
tp4640
sVEnd of Watch
p4641
(VORF
p4642
V$41,003,371
p4643
V9/21/12
p4644
tp4645
sVThe Company Men
p4646
(VWein.
p4647
V$4,441,272
p4648
V1/21/11
p4649
tp4650
sVThe Big Wedding
p4651
(VLGF
p4652
V$21,819,348
p4653
V4/26/13
p4654
tp4655
sVRaiders of the Lost Ark (IMAX)
p4656
(VPar.
p4657
V$3,125,613
p4658
V9/7/12
p4659
tp4660
sVThe Wind Rises
p4661
(VBV
p4662
V$5,209,580
p4663
V2/21/14
p4664
tp4665
sVVirginia
p4666
(VEOne
p4667
V$12,728
p4668
V5/18/12
p4669
tp4670
sVLe Amiche (re-issue)
p4671
(VFDesk
p4672
V$68,167
p4673
V6/18/10
p4674
tp4675
sVAgneepath
p4676
(VEros
p4677
V$1,986,748
p4678
V1/26/12
p4679
tp4680
sVCloudy with a Chance of Meatballs 2
p4681
(VSony
p4682
V$119,793,567
p4683
V9/27/13
p4684
tp4685
sVJumping the Broom
p4686
(VTriS
p4687
V$37,295,394
p4688
V5/6/11
p4689
tp4690
sVHoliday (2014)
p4691
(VRelbig.
p4692
V$706,893
p4693
V6/6/14
p4694
tp4695
sVEx Machina
p4696
(VA24
p4697
V$25,310,171
p4698
V4/10/15
p4699
tp4700
sVNot Today
p4701
(VFree
p4702
V$318,121
p4703
V4/12/13
p4704
tp4705
sVWar of the Buttons (2012)
p4706
(VWein.
p4707
V$47,771
p4708
V10/12/12
p4709
tp4710
sVBarfi!
p4711
(VUTV
p4712
V$2,804,874
p4713
V9/14/12
p4714
tp4715
sVThe Lazarus Effect
p4716
(VRela.
p4717
V$25,801,047
p4718
V2/27/15
p4719
tp4720
sVFar from the Madding Crowd
p4721
(VFoxS
p4722
V$12,013,991
p4723
V5/1/15
p4724
tp4725
sVEscobar: Paradise Lost
p4726
(VRTWC
p4727
V$195,792
p4728
V6/26/15
p4729
tp4730
sVGone Girl
p4731
(VFox
p4732
V$167,767,189
p4733
V10/3/14
p4734
tp4735
sVCamp (2013)
p4736
(VFree
p4737
V$324,977
p4738
V2/22/13
p4739
tp4740
sVAugust: Osage County
p4741
(VWein.
p4742
V$37,738,810
p4743
V12/27/13
p4744
tp4745
sVBabies
p4746
(VFocus
p4747
V$7,320,323
p4748
V5/7/10
p4749
tp4750
sVThe Quiet Ones
p4751
(VLGF
p4752
V$8,509,867
p4753
V4/25/14
p4754
tp4755
sVTooth Fairy
p4756
(VFox
p4757
V$60,022,256
p4758
V1/22/10
p4759
tp4760
sVMy Way (2012)
p4761
(VCJ
p4762
V$70,177
p4763
V4/20/12
p4764
tp4765
sVThe Three Stooges
p4766
(VFox
p4767
V$44,338,224
p4768
V4/13/12
p4769
tp4770
sVAmerican Sniper
p4771
(VWB
p4772
V$350,126,372
p4773
V12/25/14
p4774
tp4775
sVBlack Nativity
p4776
(VFoxS
p4777
V$7,018,189
p4778
V11/27/13
p4779
tp4780
sVThe Package (2013)
p4781
(VAnch.
p4782
V$1,469
p4783
V2/15/13
p4784
tp4785
sVIn a World
p4786
(VRAtt.
p4787
V$2,963,902
p4788
V8/9/13
p4789
tp4790
sVAccident
p4791
(VRialto
p4792
V$17,161
p4793
V5/23/14
p4794
tp4795
sVMiral
p4796
(VWein.
p4797
V$373,420
p4798
V3/25/11
p4799
tp4800
sVThe Interview (2014)
p4801
(VSony
p4802
V$6,105,175
p4803
V12/25/14
p4804
tp4805
sVThis is Where I Leave You
p4806
(VWB
p4807
V$34,296,320
p4808
V9/19/14
p4809
tp4810
sVThe Hobbit: The Desolation of Smaug
p4811
(VWB
p4812
V$258,366,855
p4813
V12/13/13
p4814
tp4815
sVSomething Borrowed
p4816
(VWB
p4817
V$39,046,489
p4818
V5/6/11
p4819
tp4820
sVBeyond the Lights
p4821
(VRela.
p4822
V$14,618,727
p4823
V11/14/14
p4824
tp4825
sVThe Drop
p4826
(VFoxS
p4827
V$10,724,389
p4828
V9/12/14
p4829
tp4830
sVThe Cabin in the Woods
p4831
(VLGF
p4832
V$42,073,277
p4833
V4/13/12
p4834
tp4835
sVA Better Life
p4836
(VSum.
p4837
V$1,759,252
p4838
V6/24/11
p4839
tp4840
sV44 Inch Chest
p4841
(VImag.
p4842
V$39,033
p4843
V1/15/10
p4844
tp4845
sVJane Eyre
p4846
(VFocus
p4847
V$11,242,660
p4848
V3/11/11
p4849
tp4850
sVLittle Boy
p4851
(VORF
p4852
V$6,485,961
p4853
V4/24/15
p4854
tp4855
sVPearl Jam Twenty
p4856
(VAbr.
p4857
V$471,334
p4858
V9/20/11
p4859
tp4860
sVSweethearts of the Prison Rodeo
p4861
(VCP
p4862
V$5,922
p4863
V9/17/10
p4864
tp4865
sVJersey Boys
p4866
(VWB
p4867
V$47,047,013
p4868
V6/20/14
p4869
tp4870
sVMama
p4871
(VUni.
p4872
V$71,628,180
p4873
V1/18/13
p4874
tp4875
sVThe Polar Express (2011 re-issue)
p4876
(VWB
p4877
V$711,168
p4878
V11/25/11
p4879
tp4880
sVPredestination
p4881
(VVE
p4882
V$68,372
p4883
V1/9/15
p4884
tp4885
sVMadame Bovary
p4886
(VAlc
p4887
V$44,235
p4888
V6/12/15
p4889
tp4890
sVDiary of a Country Priest (2011 re-release)
p4891
(VRialto
p4892
V$46,979
p4893
V2/25/11
p4894
tp4895
sVThe Iron Lady
p4896
(VWein.
p4897
V$30,017,992
p4898
V12/30/11
p4899
tp4900
sVPopulaire
p4901
(VWein.
p4902
V$179,091
p4903
V9/6/13
p4904
tp4905
sVAnna Karenina
p4906
(VFocus
p4907
V$12,816,367
p4908
V11/16/12
p4909
tp4910
sVHotel Normandy
p4911
(VRialto
p4912
V$4,640
p4913
V9/27/13
p4914
tp4915
sVAnchorman 2 (R-Rated Extended Cut)
p4916
(VPar.
p4917
V$2,184,339
p4918
V2/28/14
p4919
tp4920
sVFrank Miller's Sin City: A Dame to Kill For
p4921
(VW/Dim.
p4922
V$13,757,804
p4923
V8/22/14
p4924
tp4925
sVA Pig Across Paris (2013 re-issue)
p4926
(VRialto
p4927
V$18,297
p4928
V5/24/13
p4929
tp4930
sV3 Hearts
p4931
(VCohen
p4932
V$164,992
p4933
V3/13/15
p4934
tp4935
sVWater for Elephants
p4936
(VFox
p4937
V$58,709,717
p4938
V4/22/11
p4939
tp4940
sVHaider
p4941
(VUTV
p4942
V$1,048,143
p4943
V10/2/14
p4944
tp4945
sVLet's Be Cops
p4946
(VFox
p4947
V$82,390,774
p4948
V8/13/14
p4949
tp4950
sVRedemption (2013)
p4951
(VRAtt.
p4952
V$36,895
p4953
V6/28/13
p4954
tp4955
sVThe Full Picture
p4956
(VN/A
p4957
V$3,467
p4958
V6/11/10
p4959
tp4960
sVKites
p4961
(VRelbig.
p4962
V$1,643,486
p4963
V5/21/10
p4964
tp4965
sVHigh Tech, Low Life
p4966
(VArgo.
p4967
V$3,836
p4968
V1/9/13
p4969
tp4970
sVP.K.
p4971
(VUTV
p4972
V$10,616,104
p4973
V12/19/14
p4974
tp4975
sVThe Spectacular Now
p4976
(VA24
p4977
V$6,854,611
p4978
V8/2/13
p4979
tp4980
sVBereavement
p4981
(VPMK
p4982
V$43,712
p4983
V3/4/11
p4984
tp4985
sVMorning Glory
p4986
(VPar.
p4987
V$31,011,732
p4988
V11/10/10
p4989
tp4990
sVBreath Made Visible
p4991
(VArgo.
p4992
V$52,387
p4993
V4/2/10
p4994
tp4995
sVFed Up
p4996
(VRTWC
p4997
V$1,538,899
p4998
V5/9/14
p4999
tp5000
sVThe Hunting Ground
p5001
(VRTWC
p5002
V$391,507
p5003
V2/27/15
p5004
tp5005
sVThe Best Man Holiday
p5006
(VUni.
p5007
V$70,525,195
p5008
V11/15/13
p5009
tp5010
sVLast Flight of the Champion
p5011
(VHTR
p5012
V$2,597
p5013
V8/30/13
p5014
tp5015
sVTrace Amounts
p5016
(VGathr
p5017
V$62,509
p5018
V1/2/15
p5019
tp5020
sVClash of the Titans (2010)
p5021
(VWB
p5022
V$163,214,888
p5023
V4/2/10
p5024
tp5025
sVAs It Is In Heaven
p5026
(VN/A
p5027
V$10,850
p5028
V7/18/14
p5029
tp5030
sVJust Go With It
p5031
(VSony
p5032
V$103,028,109
p5033
V2/11/11
p5034
tp5035
sVThe Second Best Exotic Marigold Hotel
p5036
(VFoxS
p5037
V$33,078,266
p5038
V3/6/15
p5039
tp5040
sVWa-shoku: Beyond Sushi
p5041
(VUTMW
p5042
V$12,240
p5043
V4/10/15
p5044
tp5045
sVMars Needs Moms
p5046
(VBV
p5047
V$21,392,758
p5048
V3/11/11
p5049
tp5050
sVEasy Money (2012)
p5051
(VWein.
p5052
V$205,741
p5053
V7/11/12
p5054
tp5055
sVTyler Perry Presents Peeples
p5056
(VLGF
p5057
V$9,177,065
p5058
V5/10/13
p5059
tp5060
sVGirls Against Boys
p5061
(VAnch.
p5062
V$7,529
p5063
V2/1/13
p5064
tp5065
sVJust Before I Go
p5066
(VAnch.
p5067
V$10,970
p5068
V4/24/15
p5069
tp5070
sVKites: The Remix
p5071
(VRelbig.
p5072
V$41,783
p5073
V5/28/10
p5074
tp5075
sVHope Springs
p5076
(VSony
p5077
V$63,536,011
p5078
V8/8/12
p5079
tp5080
sVThe Book Thief
p5081
(VFox
p5082
V$21,488,481
p5083
V11/8/13
p5084
tp5085
sVThunder Soul
p5086
(VRAtt.
p5087
V$143,986
p5088
V9/23/11
p5089
tp5090
sVThe Bourne Legacy
p5091
(VUni.
p5092
V$113,203,870
p5093
V8/10/12
p5094
tp5095
sVErnest & Celestine
p5096
(VGK
p5097
V$262,075
p5098
V2/28/14
p5099
tp5100
sVSarah Palin - You Betcha!
p5101
(VFree
p5102
V$10,935
p5103
V9/30/11
p5104
tp5105
sVLucky (2011)
p5106
(VP4
p5107
V$8,564
p5108
V7/15/11
p5109
tp5110
sVMegamind
p5111
(VP/DW
p5112
V$148,415,853
p5113
V11/5/10
p5114
tp5115
sVThe Help
p5116
(VBV
p5117
V$169,708,112
p5118
V8/10/11
p5119
tp5120
sVThe Square
p5121
(VApp.
p5122
V$406,116
p5123
V4/9/10
p5124
tp5125
sVCourageous
p5126
(VTriS
p5127
V$34,522,221
p5128
V9/30/11
p5129
tp5130
sVThe Next Three Days
p5131
(VLGF
p5132
V$21,148,651
p5133
V11/19/10
p5134
tp5135
sVPublic Speaking
p5136
(VRialto
p5137
V$62,173
p5138
V2/23/11
p5139
tp5140
sVChernobyl Diaries
p5141
(VWB
p5142
V$18,119,640
p5143
V5/25/12
p5144
tp5145
sVThe Joneses
p5146
(VRAtt.
p5147
V$1,475,746
p5148
V4/16/10
p5149
tp5150
sVThe Internship
p5151
(VFox
p5152
V$44,672,764
p5153
V6/7/13
p5154
tp5155
sVFalcon Rising
p5156
(VFree
p5157
V$11,774
p5158
V9/5/14
p5159
tp5160
sVPeepli Live
p5161
(VUTV
p5162
V$757,951
p5163
V8/13/10
p5164
tp5165
sVRaavan
p5166
(VRelbig.
p5167
V$708,726
p5168
V6/18/10
p5169
tp5170
sVTanner Hall
p5171
(VAnch.
p5172
V$5,073
p5173
V9/9/11
p5174
tp5175
sVA Little Chaos
p5176
(VFocus
p5177
V$513,163
p5178
V6/26/15
p5179
tp5180
sVThe A-Team
p5181
(VFox
p5182
V$77,222,099
p5183
V6/11/10
p5184
tp5185
sVThe Purge: Anarchy
p5186
(VUni.
p5187
V$71,962,800
p5188
V7/18/14
p5189
tp5190
sVUnderworld Awakening
p5191
(VSGem
p5192
V$62,321,039
p5193
V1/20/12
p5194
tp5195
sVThor: The Dark World
p5196
(VBV
p5197
V$206,362,140
p5198
V11/8/13
p5199
tp5200
sV50/50
p5201
(VSum.
p5202
V$35,014,192
p5203
V9/30/11
p5204
tp5205
sVBattle: Los Angeles
p5206
(VSony
p5207
V$83,552,429
p5208
V3/11/11
p5209
tp5210
sVThe Warrior's Way
p5211
(VRela.
p5212
V$5,666,340
p5213
V12/3/10
p5214
tp5215
sVMia and the Migoo
p5216
(VGK
p5217
V$16,975
p5218
V3/25/11
p5219
tp5220
sVInfliction
p5221
(VFTP
p5222
V$2,256
p5223
V3/16/14
p5224
tp5225
sVThe Lone Ranger
p5226
(VBV
p5227
V$89,302,115
p5228
V7/3/13
p5229
tp5230
sVRosewater
p5231
(VORF
p5232
V$3,128,941
p5233
V11/14/14
p5234
tp5235
sVFinal Destination 5
p5236
(VWB (NL)
p5237
V$42,587,643
p5238
V8/12/11
p5239
tp5240
sVJackass 3-D
p5241
(VPar.
p5242
V$117,229,692
p5243
V10/15/10
p5244
tp5245
sVIn the Name of my Daughter
p5246
(VCohen
p5247
V$277,528
p5248
V5/15/15
p5249
tp5250
sVJudy Moody and the NOT Bummer Summer
p5251
(VRela.
p5252
V$15,013,650
p5253
V6/10/11
p5254
tp5255
sVOuija
p5256
(VUni.
p5257
V$50,856,010
p5258
V10/24/14
p5259
tp5260
sVCars 2
p5261
(VBV
p5262
V$191,452,396
p5263
V6/24/11
p5264
tp5265
sVFaster
p5266
(VCBS
p5267
V$23,240,020
p5268
V11/24/10
p5269
tp5270
sVSong of the Sea
p5271
(VGK
p5272
V$857,522
p5273
V12/19/14
p5274
tp5275
sVThor
p5276
(VPar.
p5277
V$181,030,624
p5278
V5/6/11
p5279
tp5280
sVThe Dark Knight Rises
p5281
(VWB
p5282
V$448,139,099
p5283
V7/20/12
p5284
tp5285
sVEscape From Planet Earth
p5286
(VWein.
p5287
V$57,012,977
p5288
V2/15/13
p5289
tp5290
sVI Hate Luv Storys
p5291
(VUTV
p5292
V$847,993
p5293
V6/30/10
p5294
tp5295
sVExodus: Gods and Kings
p5296
(VFox
p5297
V$65,014,513
p5298
V12/12/14
p5299
tp5300
sVThe Sweeney
p5301
(VEOne
p5302
V$26,650
p5303
V3/1/13
p5304
tp5305
sVThe Hunger Games
p5306
(VLGF
p5307
V$408,010,692
p5308
V3/23/12
p5309
tp5310
sVInside Llewyn Davis
p5311
(VCBS
p5312
V$13,235,319
p5313
V12/6/13
p5314
tp5315
sVBeing Flynn
p5316
(VFocus
p5317
V$540,152
p5318
V3/2/12
p5319
tp5320
sVOut in the Dark
p5321
(VBGP
p5322
V$26,966
p5323
V9/27/13
p5324
tp5325
sVUdaan
p5326
(VUTV
p5327
V$7,461
p5328
V7/16/10
p5329
tp5330
sVThe Collection
p5331
(VLD
p5332
V$6,842,058
p5333
V11/30/12
p5334
tp5335
sVKung Fu Killer
p5336
(VWGUSA
p5337
V$129,784
p5338
V4/24/15
p5339
tp5340
sVThe Investigator
p5341
(VGMF
p5342
V$103,739
p5343
V9/13/13
p5344
tp5345
sVShark Night 3D
p5346
(VRela.
p5347
V$18,877,153
p5348
V9/2/11
p5349
tp5350
sVThe Thing (2011)
p5351
(VUni.
p5352
V$16,928,670
p5353
V10/14/11
p5354
tp5355
sVArjun: The Warrior Prince
p5356
(VUTV
p5357
V$10,017
p5358
V5/25/12
p5359
tp5360
sVMIB 3
p5361
(VSony
p5362
V$179,020,854
p5363
V5/25/12
p5364
tp5365
sVThe Legend of Hercules
p5366
(VLG/S
p5367
V$18,848,538
p5368
V1/10/14
p5369
tp5370
sVEvil Intent
p5371
(VDWOES
p5372
V$10,454
p5373
V6/29/13
p5374
tp5375
sVSeason of the Witch
p5376
(VRela.
p5377
V$24,827,228
p5378
V1/7/11
p5379
tp5380
sVRepentance
p5381
(VLGF
p5382
V$1,189,612
p5383
V2/28/14
p5384
tp5385
sVThe Amazing Spider-Man 2
p5386
(VSony
p5387
V$202,853,933
p5388
V5/2/14
p5389
tp5390
sVJack and Jill
p5391
(VSony
p5392
V$74,158,157
p5393
V11/11/11
p5394
tp5395
sVTales from Earthsea
p5396
(VBV
p5397
V$48,461
p5398
V8/13/10
p5399
tp5400
sVFrom Up on Poppy Hill
p5401
(VGK
p5402
V$1,002,895
p5403
V3/15/13
p5404
tp5405
sVLucy
p5406
(VUni.
p5407
V$126,663,600
p5408
V7/25/14
p5409
tp5410
sVThe Other Woman (2014)
p5411
(VFox
p5412
V$83,911,193
p5413
V4/25/14
p5414
tp5415
sVLittle White Lies
p5416
(VMPI
p5417
V$206,088
p5418
V8/24/12
p5419
tp5420
sVThe Lord of the Rings: The Return of the King (2011 re-release)
p5421
(VWB
p5422
V$818,580
p5423
V6/28/11
p5424
tp5425
sVThe Polar Express (2012 re-issue)
p5426
(VWB
p5427
V$669,289
p5428
V11/21/12
p5429
tp5430
sVGodzilla: The Japanese Original
p5431
(VRialto
p5432
V$150,191
p5433
V4/18/14
p5434
tp5435
sVRabbit Hole
p5436
(VLGF
p5437
V$2,229,058
p5438
V12/17/10
p5439
tp5440
sVDon 2
p5441
(VRelbig.
p5442
V$3,680,306
p5443
V12/22/11
p5444
tp5445
sVThe Giver
p5446
(VWein.
p5447
V$45,090,374
p5448
V8/15/14
p5449
tp5450
sVThe Strange Little Cat
p5451
(VKS
p5452
V$5,885
p5453
V8/1/14
p5454
tp5455
sVParanormal Activity 3
p5456
(VPar.
p5457
V$104,028,807
p5458
V10/21/11
p5459
tp5460
sVBears
p5461
(VBV
p5462
V$17,780,194
p5463
V4/18/14
p5464
tp5465
sVHomefront
p5466
(VORF
p5467
V$20,158,898
p5468
V11/27/13
p5469
tp5470
sVAlex Cross
p5471
(VLG/S
p5472
V$25,888,412
p5473
V10/19/12
p5474
tp5475
sVThe Woman in Black
p5476
(VCBS
p5477
V$54,333,290
p5478
V2/3/12
p5479
tp5480
sVCosmopolis
p5481
(VEOne
p5482
V$763,556
p5483
V8/17/12
p5484
tp5485
sVMugamoodi
p5486
(VUTV
p5487
V$100,809
p5488
V8/31/12
p5489
tp5490
sVAll's Faire in Love
p5491
(VHann.
p5492
V$22,180
p5493
V10/28/11
p5494
tp5495
sVLottery Ticket
p5496
(VWB
p5497
V$24,719,879
p5498
V8/20/10
p5499
tp5500
sVSeeking Justice
p5501
(VAnch.
p5502
V$411,746
p5503
V3/16/12
p5504
tp5505
sVThe Gambler
p5506
(VPar.
p5507
V$33,680,992
p5508
V12/25/14
p5509
tp5510
sVTexas Chainsaw 3D
p5511
(VLGF
p5512
V$34,341,945
p5513
V1/4/13
p5514
tp5515
sVOlympus Has Fallen
p5516
(VFD
p5517
V$98,925,640
p5518
V3/22/13
p5519
tp5520
sVDeliver Us From Evil
p5521
(VSGem
p5522
V$30,577,122
p5523
V7/2/14
p5524
tp5525
sVNew Year's Eve
p5526
(VWB (NL)
p5527
V$54,544,638
p5528
V12/9/11
p5529
tp5530
sVWhat If (2014)
p5531
(VCBS
p5532
V$3,493,000
p5533
V8/8/14
p5534
tp5535
sVThe Equalizer
p5536
(VSony
p5537
V$101,530,738
p5538
V9/26/14
p5539
tp5540
sVArthur (2011)
p5541
(VWB
p5542
V$33,035,397
p5543
V4/8/11
p5544
tp5545
sVThe Skeleton Twins
p5546
(VRAtt.
p5547
V$5,284,309
p5548
V9/12/14
p5549
tp5550
sVMommy
p5551
(VRAtt.
p5552
V$3,494,070
p5553
V9/19/14
p5554
tp5555
sVThe Tale of The Princess Kaguya
p5556
(VGK
p5557
V$703,232
p5558
V10/17/14
p5559
tp5560
sVThe Way, Way Back
p5561
(VFoxS
p5562
V$21,506,546
p5563
V7/5/13
p5564
tp5565
sVFrom Prada to Nada
p5566
(VLGF
p5567
V$3,033,623
p5568
V1/28/11
p5569
tp5570
sVTrue Grit
p5571
(VPar.
p5572
V$171,243,005
p5573
V12/22/10
p5574
tp5575
sVFast & Furious 6
p5576
(VUni.
p5577
V$238,679,850
p5578
V5/24/13
p5579
tp5580
sVI'm In Love With a Church Girl
p5581
(VHTR
p5582
V$2,387,730
p5583
V10/18/13
p5584
tp5585
sVRemember Me
p5586
(VSum.
p5587
V$19,068,240
p5588
V3/12/10
p5589
tp5590
sVScott Pilgrim vs. the World
p5591
(VUni.
p5592
V$31,524,275
p5593
V8/13/10
p5594
tp5595
sVLeft Behind (2014)
p5596
(VFree
p5597
V$14,019,924
p5598
V10/3/14
p5599
tp5600
sVEva
p5601
(VWein.
p5602
V$16,738
p5603
V3/13/15
p5604
tp5605
sVPitch Perfect
p5606
(VUni.
p5607
V$65,001,093
p5608
V9/28/12
p5609
tp5610
sVThe Son of No One
p5611
(VAnch.
p5612
V$30,680
p5613
V11/4/11
p5614
tp5615
sVDead Man Down
p5616
(VFD
p5617
V$10,895,295
p5618
V3/8/13
p5619
tp5620
sVSpecial Forces
p5621
(VEOne
p5622
V$10,759
p5623
V10/12/12
p5624
tp5625
sVThe Wolfman
p5626
(VUni.
p5627
V$61,979,680
p5628
V2/12/10
p5629
tp5630
sVCave of Forgotten Dreams
p5631
(VIFC
p5632
V$5,304,920
p5633
V4/29/11
p5634
tp5635
sVJimi: All Is By My Side
p5636
(VXL
p5637
V$340,911
p5638
V9/26/14
p5639
tp5640
sVBucky Larson: Born to Be a Star
p5641
(VSony
p5642
V$2,529,395
p5643
V9/9/11
p5644
tp5645
sVEl Sicario, Room 164
p5646
(VIcar.
p5647
V$6,123
p5648
V12/28/11
p5649
tp5650
sVLe Rayon Vert (Summer)
p5651
(VFDesk
p5652
V$43,839
p5653
V6/9/11
p5654
tp5655
sVBuried
p5656
(VLGF
p5657
V$1,044,143
p5658
V9/24/10
p5659
tp5660
sVThe Karate Kid
p5661
(VSony
p5662
V$176,591,618
p5663
V6/11/10
p5664
tp5665
sVGhostbusters (30th Anniversary re-release)
p5666
(VSony
p5667
V$3,580,343
p5668
V8/29/14
p5669
tp5670
sVThe 100-Year Old Man Who Climbed Out the Window and Disappeared
p5671
(VMBox
p5672
V$815,769
p5673
V5/1/15
p5674
tp5675
sVParanormal Activity: The Marked Ones
p5676
(VPar.
p5677
V$32,462,372
p5678
V1/3/14
p5679
tp5680
sVWild (2014)
p5681
(VFoxS
p5682
V$37,880,356
p5683
V12/3/14
p5684
tp5685
sVWhat's Your Number?
p5686
(VFox
p5687
V$14,011,084
p5688
V9/30/11
p5689
tp5690
sVThe Monuments Men
p5691
(VSony
p5692
V$78,031,620
p5693
V2/7/14
p5694
tp5695
sVThis Is 40
p5696
(VUni.
p5697
V$67,544,505
p5698
V12/21/12
p5699
tp5700
sVBeautiful Creatures (2013)
p5701
(VWB
p5702
V$19,452,138
p5703
V2/14/13
p5704
tp5705
sVHumpty Sharma Ki Dulhania
p5706
(VRelbig.
p5707
V$380,011
p5708
V7/11/14
p5709
tp5710
sVPoltergeist (2015)
p5711
(VFox
p5712
V$47,267,105
p5713
V5/22/15
p5714
tp5715
sVI Don't Know How She Does It
p5716
(VWein.
p5717
V$9,662,284
p5718
V9/16/11
p5719
tp5720
sVA Haunted House 2
p5721
(VORF
p5722
V$17,329,486
p5723
V4/18/14
p5724
tp5725
sVMachine Gun Preacher
p5726
(VRela.
p5727
V$538,690
p5728
V9/23/11
p5729
tp5730
sVArgo
p5731
(VWB
p5732
V$136,025,503
p5733
V10/12/12
p5734
tp5735
sVPersecuted
p5736
(VMNE
p5737
V$1,558,836
p5738
V7/18/14
p5739
tp5740
sVDhoom 3
p5741
(VYash
p5742
V$8,031,955
p5743
V12/20/13
p5744
tp5745
sVHereafter
p5746
(VWB
p5747
V$32,746,941
p5748
V10/15/10
p5749
tp5750
sVThe Lucky One
p5751
(VWB
p5752
V$60,457,138
p5753
V4/20/12
p5754
tp5755
sVConan the Barbarian (2011)
p5756
(VLGF
p5757
V$21,295,021
p5758
V8/19/11
p5759
tp5760
sVThe Boy Next Door
p5761
(VUni.
p5762
V$35,423,380
p5763
V1/23/15
p5764
tp5765
sVSpy
p5766
(VFox
p5767
V$103,900,066
p5768
V6/5/15
p5769
tp5770
sV12 Years a Slave
p5771
(VFoxS
p5772
V$56,671,993
p5773
V10/18/13
p5774
tp5775
sVTron Legacy
p5776
(VBV
p5777
V$172,062,763
p5778
V12/17/10
p5779
tp5780
sVSoul Surfer
p5781
(VTriS
p5782
V$43,853,424
p5783
V4/8/11
p5784
tp5785
sVZookeeper
p5786
(VSony
p5787
V$80,360,843
p5788
V7/8/11
p5789
tp5790
sVMuran
p5791
(VUTV
p5792
V$30,116
p5793
V9/30/11
p5794
tp5795
sVThe Fault in our Stars
p5796
(VFox
p5797
V$124,872,350
p5798
V6/6/14
p5799
tp5800
sVWall Street: Money Never Sleeps
p5801
(VFox
p5802
V$52,474,616
p5803
V9/24/10
p5804
tp5805
sVKick-Ass 2
p5806
(VUni.
p5807
V$28,795,985
p5808
V8/16/13
p5809
tp5810
sVAvatar: Special Edition
p5811
(VFox
p5812
V$10,741,486
p5813
V8/27/10
p5814
tp5815
sVDhobi Ghat (Mumbai Diaries)
p5816
(VUTV
p5817
V$576,639
p5818
V1/21/11
p5819
tp5820
sVFilmistaan
p5821
(VUTV
p5822
V$45,406
p5823
V6/6/14
p5824
tp5825
sVAct of Valor
p5826
(VRela.
p5827
V$70,012,847
p5828
V2/24/12
p5829
tp5830
sVTyler Perry's Madea's Big Happy Family
p5831
(VLGF
p5832
V$53,345,287
p5833
V4/22/11
p5834
tp5835
sV2016 Obama's America
p5836
(VRM
p5837
V$33,449,086
p5838
V7/13/12
p5839
tp5840
sVSpare Parts
p5841
(VLGF
p5842
V$3,618,912
p5843
V1/16/15
p5844
tp5845
sVThe Age of Adaline
p5846
(VLGF
p5847
V$42,629,776
p5848
V4/24/15
p5849
tp5850
sVLove At First Fight
p5851
(VStrand
p5852
V$24,554
p5853
V5/22/15
p5854
tp5855
sVThe Theory of Everything
p5856
(VFocus
p5857
V$35,893,537
p5858
V11/7/14
p5859
tp5860
sVRunner Runner
p5861
(VFox
p5862
V$19,316,646
p5863
V10/4/13
p5864
tp5865
sVHere Comes the Boom
p5866
(VSony
p5867
V$45,290,318
p5868
V10/12/12
p5869
tp5870
sVBlue Valentine
p5871
(VWein.
p5872
V$9,706,328
p5873
V12/29/10
p5874
tp5875
sVPaan Singh Tomar
p5876
(VUTV
p5877
V$40,311
p5878
V3/2/12
p5879
tp5880
sVGrand Illusion (2012 re-release)
p5881
(VRialto
p5882
V$174,065
p5883
V5/11/12
p5884
tp5885
sVFriends with Kids
p5886
(VRAtt.
p5887
V$7,251,073
p5888
V3/9/12
p5889
tp5890
sVPiranha 3D
p5891
(VW/Dim.
p5892
V$25,003,155
p5893
V8/20/10
p5894
tp5895
sVVampire Academy
p5896
(VWein.
p5897
V$7,791,979
p5898
V2/7/14
p5899
tp5900
sVTangled
p5901
(VBV
p5902
V$200,821,936
p5903
V11/24/10
p5904
tp5905
sVBang Bang
p5906
(VFIP
p5907
V$2,546,172
p5908
V10/2/14
p5909
tp5910
sVBarefoot
p5911
(VRAtt.
p5912
V$15,071
p5913
V2/21/14
p5914
tp5915
sVHappyThankYouMorePlease
p5916
(VAnch.
p5917
V$216,110
p5918
V3/4/11
p5919
tp5920
sVWhite Wedding
p5921
(VDa.
p5922
V$11,710
p5923
V9/3/10
p5924
tp5925
sVOur Man in Tehran
p5926
(VFRun
p5927
V$2,462
p5928
V5/15/15
p5929
tp5930
sVR.I.P.D.
p5931
(VUni.
p5932
V$33,618,855
p5933
V7/19/13
p5934
tp5935
sVAtlas Shrugged: Part II
p5936
(VADC
p5937
V$3,336,053
p5938
V10/12/12
p5939
tp5940
sVGnomeo and Juliet
p5941
(VBV
p5942
V$99,967,670
p5943
V2/11/11
p5944
tp5945
sVI Am Ali
p5946
(VFocus
p5947
V$7,205
p5948
V10/10/14
p5949
tp5950
sVManuscripts Don't Burn
p5951
(VKL
p5952
V$6,295
p5953
V7/25/14
p5954
tp5955
sVThe Divergent Series: Insurgent
p5956
(VLG/S
p5957
V$130,179,072
p5958
V3/20/15
p5959
tp5960
sVCaptain Phillips
p5961
(VSony
p5962
V$107,100,855
p5963
V10/11/13
p5964
tp5965
sVJe T'aime, Je T'aime (2014 re-issue)
p5966
(VFDesk
p5967
V$71,717
p5968
V2/14/14
p5969
tp5970
sVNever Let Me Go
p5971
(VFoxS
p5972
V$2,434,652
p5973
V9/15/10
p5974
tp5975
sVWinter's Bone
p5976
(VRAtt.
p5977
V$6,531,503
p5978
V6/11/10
p5979
tp5980
sVCool It
p5981
(VRAtt.
p5982
V$62,713
p5983
V11/12/10
p5984
tp5985
sVThe Last Day of August
p5986
(VSE
p5987
V$2,492
p5988
V10/4/13
p5989
tp5990
sVSaving Mr. Banks
p5991
(VBV
p5992
V$83,301,580
p5993
V12/13/13
p5994
tp5995
sVBiutiful
p5996
(VRAtt.
p5997
V$5,101,237
p5998
V1/28/11
p5999
tp6000
sVThe Gallows
p6001
(VWB (NL)
p6002
V$10,919,834
p6003
V7/10/15
p6004
tp6005
sVStrangerland
p6006
(VAlc
p6007
V$17,472
p6008
V7/10/15
p6009
tp6010
sVCesar Chavez
p6011
(VLGF
p6012
V$5,571,497
p6013
V3/28/14
p6014
tp6015
sVInto the Woods
p6016
(VBV
p6017
V$128,002,372
p6018
V12/25/14
p6019
tp6020
sVTyler Perry's A Madea Christmas
p6021
(VLGF
p6022
V$52,543,354
p6023
V12/13/13
p6024
tp6025
sVThe World's End
p6026
(VFocus
p6027
V$26,004,851
p6028
V8/23/13
p6029
tp6030
sVSeventh Son
p6031
(VUni.
p6032
V$17,223,265
p6033
V2/6/15
p6034
tp6035
sVThe Obama Effect
p6036
(VArcEnt
p6037
V$110,904
p6038
V7/13/12
p6039
tp6040
sVAlvin and the Chipmunks: Chipwrecked
p6041
(VFox
p6042
V$133,110,742
p6043
V12/16/11
p6044
tp6045
sVThe Secret World of Arrietty
p6046
(VBV
p6047
V$19,202,743
p6048
V2/17/12
p6049
tp6050
sVThe Players
p6051
(VWein.
p6052
V$10,854
p6053
V4/4/14
p6054
tp6055
sVThe Afterlight
p6056
(VCP
p6057
V$3,059
p6058
V9/10/10
p6059
tp6060
sVWoman in Gold
p6061
(VWein.
p6062
V$33,148,295
p6063
V4/1/15
p6064
tp6065
sVTyler Perry's Why Did I Get Married Too?
p6066
(VLGF
p6067
V$60,095,852
p6068
V4/2/10
p6069
tp6070
sVJohnny English Reborn
p6071
(VUni.
p6072
V$8,305,970
p6073
V10/21/11
p6074
tp6075
sVThe Worst Movie EVER!
p6076
(VDWOES
p6077
V$25,206
p6078
V8/19/11
p6079
tp6080
sVMadagascar 3: Europe's Most Wanted
p6081
(VP/DW
p6082
V$216,391,482
p6083
V6/8/12
p6084
tp6085
sVMy Week with Marilyn
p6086
(VWein.
p6087
V$14,600,347
p6088
V11/23/11
p6089
tp6090
sVThe Bounty Hunter
p6091
(VSony
p6092
V$67,061,228
p6093
V3/19/10
p6094
tp6095
sVBorn to Be Wild (IMAX)
p6096
(VWB
p6097
V$23,862,402
p6098
V4/8/11
p6099
tp6100
sVFury (2014)
p6101
(VSony
p6102
V$85,817,906
p6103
V10/17/14
p6104
tp6105
sVFrozen (2010)
p6106
(VAnch.
p6107
V$246,176
p6108
V2/5/10
p6109
tp6110
sVRobin Hood
p6111
(VUni.
p6112
V$105,269,730
p6113
V5/14/10
p6114
tp6115
sVHimmatwala
p6116
(VUTV
p6117
V$270,880
p6118
V3/29/13
p6119
tp6120
sVDinner for Schmucks
p6121
(VP/DW
p6122
V$73,026,337
p6123
V7/30/10
p6124
tp6125
sVRiddick
p6126
(VUni.
p6127
V$42,025,135
p6128
V9/6/13
p6129
tp6130
sVNitro Circus the Movie 3D
p6131
(VArcEnt
p6132
V$3,377,618
p6133
V8/8/12
p6134
tp6135
sVPort of Shadows (2012 re-issue)
p6136
(VRialto
p6137
V$27,389
p6138
V9/14/12
p6139
tp6140
sVLe Petit Soldat (2013 re-release)
p6141
(VRialto
p6142
V$24,296
p6143
V3/8/13
p6144
tp6145
sVHorrible Bosses
p6146
(VWB (NL)
p6147
V$117,538,559
p6148
V7/8/11
p6149
tp6150
sVSpring Breakers
p6151
(VA24
p6152
V$14,124,284
p6153
V3/15/13
p6154
tp6155
sVHector And The Search For Happiness
p6156
(VRela.
p6157
V$1,124,445
p6158
V9/19/14
p6159
tp6160
sVThe Eagle
p6161
(VFocus
p6162
V$19,490,041
p6163
V2/11/11
p6164
tp6165
sVGrease (Sing-a-Long re-issue)
p6166
(VPar.
p6167
V$365,802
p6168
V7/8/10
p6169
tp6170
sVLevel Five
p6171
(VIcar.
p6172
V$24,835
p6173
V8/15/14
p6174
tp6175
sVThe To-Do List
p6176
(VCBS
p6177
V$3,491,669
p6178
V7/26/13
p6179
tp6180
sVThe SpongeBob Movie: Sponge Out of Water
p6181
(VPar.
p6182
V$162,994,032
p6183
V2/6/15
p6184
tp6185
sVStories We Tell
p6186
(VRAtt.
p6187
V$1,600,145
p6188
V5/10/13
p6189
tp6190
sVUndefeated (2012)
p6191
(VWein.
p6192
V$562,218
p6193
V2/17/12
p6194
tp6195
sVCedar Rapids
p6196
(VFoxS
p6197
V$6,861,102
p6198
V2/11/11
p6199
tp6200
sVHorns
p6201
(VRTWC
p6202
V$173,948
p6203
V10/31/14
p6204
tp6205
sVThe Green Hornet
p6206
(VSony
p6207
V$98,780,042
p6208
V1/14/11
p6209
tp6210
sVNightcrawler
p6211
(VORF
p6212
V$32,381,217
p6213
V10/31/14
p6214
tp6215
sVStrangers Online
p6216
(VBGP
p6217
V$968
p6218
V6/24/11
p6219
tp6220
sVJonah Hex
p6221
(VWB
p6222
V$10,547,117
p6223
V6/18/10
p6224
tp6225
sVMoonrise Kingdom
p6226
(VFocus
p6227
V$45,512,466
p6228
V5/25/12
p6229
tp6230
sVLost in Thailand
p6231
(VWAMCR
p6232
V$57,387
p6233
V2/8/13
p6234
tp6235
sVReturn to Nuke 'Em High Volume 1
p6236
(VAnch.
p6237
V$5,122
p6238
V1/10/14
p6239
tp6240
sVThe Wedding Ringer
p6241
(VSGem
p6242
V$64,460,211
p6243
V1/16/15
p6244
tp6245
sVKill the Messenger
p6246
(VFocus
p6247
V$2,450,846
p6248
V10/10/14
p6249
tp6250
sVSecretariat
p6251
(VBV
p6252
V$59,713,955
p6253
V10/8/10
p6254
tp6255
sVDum Maaro Dum
p6256
(VFoxS
p6257
V$564,489
p6258
V4/22/11
p6259
tp6260
sVBully (2012)
p6261
(VWein.
p6262
V$279,202
p6263
V3/30/12
p6264
tp6265
sVBeginners
p6266
(VFocus
p6267
V$5,790,894
p6268
V6/3/11
p6269
tp6270
sVSomewhere
p6271
(VFocus
p6272
V$1,785,645
p6273
V12/22/10
p6274
tp6275
sVBol Bachchan
p6276
(VFIP
p6277
V$1,216,258
p6278
V7/6/12
p6279
tp6280
sVI Love You, Phillip Morris
p6281
(VRAtt.
p6282
V$2,037,459
p6283
V12/3/10
p6284
tp6285
sVOne Small Hitch
p6286
(VFree
p6287
V$7,965
p6288
V2/6/15
p6289
tp6290
sVDue Date
p6291
(VWB
p6292
V$100,539,043
p6293
V11/5/10
p6294
tp6295
sVLabor Day
p6296
(VPar.
p6297
V$13,371,528
p6298
V1/31/14
p6299
tp6300
sV5 Days of War
p6301
(VAnch.
p6302
V$17,479
p6303
V8/19/11
p6304
tp6305
sVThe Last Stand
p6306
(VLGF
p6307
V$12,050,299
p6308
V1/18/13
p6309
tp6310
sVHot Tub Time Machine 2
p6311
(VPar.
p6312
V$12,314,651
p6313
V2/20/15
p6314
tp6315
sVKiller Joe
p6316
(VLD
p6317
V$1,987,762
p6318
V7/27/12
p6319
tp6320
sVIn Secret
p6321
(VRAtt.
p6322
V$444,179
p6323
V2/21/14
p6324
tp6325
sVEntourage
p6326
(VWB
p6327
V$32,131,517
p6328
V6/3/15
p6329
tp6330
sVFinding Nemo (3D)
p6331
(VBV
p6332
V$41,128,283
p6333
V9/14/12
p6334
tp6335
sVPariah
p6336
(VFocus
p6337
V$769,552
p6338
V12/28/11
p6339
tp6340
sVOne Day Pina Asked...
p6341
(VIcar.
p6342
V$13,261
p6343
V4/4/14
p6344
tp6345
sVOld Fashioned
p6346
(VFree
p6347
V$1,914,090
p6348
V2/6/15
p6349
tp6350
sVThe Judge
p6351
(VWB
p6352
V$47,119,388
p6353
V10/10/14
p6354
tp6355
sVStations of the Elevated
p6356
(VAPD/C
p6357
V$28,516
p6358
V10/17/14
p6359
tp6360
sVWon't Back Down
p6361
(VFox
p6362
V$5,310,554
p6363
V9/28/12
p6364
tp6365
sVChillar Party
p6366
(VUTV
p6367
V$6,330
p6368
V7/8/11
p6369
tp6370
sVInstructions Not Included
p6371
(VLGF
p6372
V$44,467,206
p6373
V8/30/13
p6374
tp6375
sVToys in the Attic
p6376
(VHann.
p6377
V$64,918
p6378
V9/7/12
p6379
tp6380
sVSource Code
p6381
(VSum.
p6382
V$54,712,227
p6383
V4/1/11
p6384
tp6385
sVI'm Not Jesus Mommy
p6386
(VFDem
p6387
V$15,005
p6388
V5/6/11
p6389
tp6390
sVFriends with Benefits
p6391
(VSGem
p6392
V$55,802,754
p6393
V7/22/11
p6394
tp6395
sVMad Max: Fury Road
p6396
(VWB
p6397
V$150,341,855
p6398
V5/15/15
p6399
tp6400
sVNot Fade Away
p6401
(VParV
p6402
V$610,792
p6403
V12/21/12
p6404
tp6405
sVReaching for the Moon
p6406
(VWlfe.
p6407
V$45,502
p6408
V11/8/13
p6409
tp6410
sVGone
p6411
(VLG/S
p6412
V$11,682,205
p6413
V2/24/12
p6414
tp6415
sVDaybreakers
p6416
(VLGF
p6417
V$30,101,577
p6418
V1/8/10
p6419
tp6420
sVThe Suicide Theory
p6421
(VFree
p6422
V$5,525
p6423
V7/10/15
p6424
tp6425
sVUnfinished Business
p6426
(VFox
p6427
V$10,219,501
p6428
V3/6/15
p6429
tp6430
sVTyler Perry's Temptation: Confessions of a Marriage Counselor
p6431
(VLGF
p6432
V$51,975,354
p6433
V3/29/13
p6434
tp6435
sVA Zombie Invasion
p6436
(VALP
p6437
V$1,170
p6438
V12/12/13
p6439
tp6440
sVPenguins of Madagascar
p6441
(VFox
p6442
V$83,350,911
p6443
V11/26/14
p6444
tp6445
sVFocus (2015)
p6446
(VWB
p6447
V$53,862,963
p6448
V2/27/15
p6449
tp6450
sVLove is in the Air
p6451
(VFocus
p6452
V$8,425
p6453
V1/31/14
p6454
tp6455
sVThe American
p6456
(VFocus
p6457
V$35,606,376
p6458
V9/1/10
p6459
tp6460
sVBrotherly Love
p6461
(VFree
p6462
V$478,595
p6463
V4/24/15
p6464
tp6465
sVStrange Magic
p6466
(VBV
p6467
V$12,429,583
p6468
V1/23/15
p6469
tp6470
sVGangster Squad
p6471
(VWB
p6472
V$46,000,903
p6473
V1/11/13
p6474
tp6475
sVSpeed-Dating
p6476
(VRR
p6477
V$5,240
p6478
V6/4/10
p6479
tp6480
sVThe Seven Five
p6481
(VIFC
p6482
V$40,674
p6483
V5/8/15
p6484
tp6485
sVSubmarine
p6486
(VWein.
p6487
V$467,602
p6488
V6/3/11
p6489
tp6490
sVProm
p6491
(VBV
p6492
V$10,130,219
p6493
V4/29/11
p6494
tp6495
sVMovie 43
p6496
(VRela.
p6497
V$8,840,453
p6498
V1/25/13
p6499
tp6500
sVAfter.Life
p6501
(VAnch.
p6502
V$108,595
p6503
V4/9/10
p6504
tp6505
sVWe Are Family
p6506
(VUTV
p6507
V$638,144
p6508
V9/3/10
p6509
tp6510
sVYves Saint Laurent
p6511
(VWein.
p6512
V$723,593
p6513
V6/25/14
p6514
tp6515
sVThe Art of Getting By
p6516
(VFoxS
p6517
V$1,430,241
p6518
V6/17/11
p6519
tp6520
sVThe November Man
p6521
(VRela.
p6522
V$25,018,119
p6523
V8/27/14
p6524
tp6525
sV'71
p6526
(VRAtt.
p6527
V$1,270,847
p6528
V2/27/15
p6529
tp6530
sVDon't Think I've Forgotten: Cambodia's Lost Rock and Roll
p6531
(VArgo.
p6532
V$126,133
p6533
V4/22/15
p6534
tp6535
sVMachete Kills
p6536
(VORF
p6537
V$8,008,161
p6538
V10/11/13
p6539
tp6540
sV30 Beats
p6541
(VRAtt.
p6542
V$14,693
p6543
V7/20/12
p6544
tp6545
sV127 Hours
p6546
(VFoxS
p6547
V$18,335,230
p6548
V11/5/10
p6549
tp6550
sVLincoln
p6551
(VBV
p6552
V$182,207,973
p6553
V11/9/12
p6554
tp6555
sVMoms' Night Out
p6556
(VTriS
p6557
V$10,429,707
p6558
V5/9/14
p6559
tp6560
sVThe Future
p6561
(VRAtt.
p6562
V$568,662
p6563
V7/29/11
p6564
tp6565
sVThe Descendants
p6566
(VFoxS
p6567
V$82,584,160
p6568
V11/16/11
p6569
tp6570
sVDumb and Dumber To
p6571
(VUni.
p6572
V$86,208,010
p6573
V11/14/14
p6574
tp6575
sVJeff, Who Lives at Home
p6576
(VParV
p6577
V$4,269,426
p6578
V3/16/12
p6579
tp6580
sVFurry Vengeance
p6581
(VSum.
p6582
V$17,630,465
p6583
V4/30/10
p6584
tp6585
sVThe Quitter
p6586
(VOGP
p6587
V$8,512
p6588
V9/12/14
p6589
tp6590
sVRomeo and Juliet (2013)
p6591
(VRela.
p6592
V$1,162,635
p6593
V10/11/13
p6594
tp6595
sVFor Colored Girls
p6596
(VLGF
p6597
V$37,729,698
p6598
V11/5/10
p6599
tp6600
sVThe Impossible
p6601
(VLG/S
p6602
V$19,019,882
p6603
V12/21/12
p6604
tp6605
sVFurious 7
p6606
(VUni.
p6607
V$351,032,910
p6608
V4/3/15
p6609
tp6610
sVFast Five
p6611
(VUni.
p6612
V$209,837,675
p6613
V4/29/11
p6614
tp6615
sVPirates of the Caribbean: On Stranger Tides
p6616
(VBV
p6617
V$241,071,802
p6618
V5/20/11
p6619
tp6620
sVLe Jour Se Leve (2014 re-release)
p6621
(VRialto
p6622
V$35,321
p6623
V11/14/14
p6624
tp6625
sVThe Intouchables (U.S.-only)
p6626
(VWein.
p6627
V$10,198,820
p6628
V5/25/12
p6629
tp6630
sVA Thousand Words
p6631
(VP/DW
p6632
V$18,450,127
p6633
V3/9/12
p6634
tp6635
sVOne Chance
p6636
(VWein.
p6637
V$101,196
p6638
V10/10/14
p6639
tp6640
sVLove, Rosie
p6641
(VTFA
p6642
V$20,431
p6643
V2/6/15
p6644
tp6645
sVEnder's Game
p6646
(VLG/S
p6647
V$61,737,191
p6648
V11/1/13
p6649
tp6650
sVGet Him to the Greek
p6651
(VUni.
p6652
V$60,974,475
p6653
V6/4/10
p6654
tp6655
sVBig Sur
p6656
(VKE
p6657
V$37,466
p6658
V11/1/13
p6659
tp6660
sVJurassic Park 3D
p6661
(VUni.
p6662
V$45,385,935
p6663
V4/5/13
p6664
tp6665
sVCarrie (2013)
p6666
(VSGem
p6667
V$35,266,619
p6668
V10/18/13
p6669
tp6670
sVPriest
p6671
(VSGem
p6672
V$29,136,626
p6673
V5/13/11
p6674
tp6675
sVBhaag Milkha Bhaag
p6676
(VRelbig.
p6677
V$1,636,731
p6678
V7/12/13
p6679
tp6680
sVDon Jon
p6681
(VRela.
p6682
V$24,477,704
p6683
V9/27/13
p6684
tp6685
sVSon of God
p6686
(VFox
p6687
V$59,700,064
p6688
V2/28/14
p6689
tp6690
sVWe Steal Secrets: The Story of Wikileaks
p6691
(VFocus
p6692
V$166,243
p6693
V5/24/13
p6694
tp6695
sVPawn
p6696
(VAnch.
p6697
V$4,141
p6698
V4/19/13
p6699
tp6700
sVPrisoners
p6701
(VWB
p6702
V$61,002,302
p6703
V9/20/13
p6704
tp6705
sVThe Imposter
p6706
(VIM
p6707
V$898,317
p6708
V7/13/12
p6709
tp6710
sVBaahubali: The Beginning
p6711
(VBSC
p6712
V$3,575,000
p6713
V7/9/15
p6714
tp6715
sVHayride 2
p6716
(VFree
p6717
V$2,571
p6718
V3/6/15
p6719
tp6720
sVA Resurrection
p6721
(VAD
p6722
V$10,730
p6723
V3/22/13
p6724
tp6725
sVIce Age: Continental Drift
p6726
(VFox
p6727
V$161,321,843
p6728
V7/13/12
p6729
tp6730
sVSilent Night
p6731
(VAnch.
p6732
V$14,567
p6733
V11/30/12
p6734
tp6735
sVCyrus
p6736
(VFoxS
p6737
V$7,468,936
p6738
V6/18/10
p6739
tp6740
sVBranded
p6741
(VRAtt.
p6742
V$353,513
p6743
V9/7/12
p6744
tp6745
sVDivergent
p6746
(VLG/S
p6747
V$150,947,895
p6748
V3/21/14
p6749
tp6750
sVThe Rabbi's Cat
p6751
(VGK
p6752
V$23,392
p6753
V12/7/12
p6754
tp6755
sVCats & Dogs: The Revenge of Kitty Galore
p6756
(VWB
p6757
V$43,585,753
p6758
V7/30/10
p6759
tp6760
sV300: Rise of An Empire
p6761
(VWB
p6762
V$106,580,051
p6763
V3/7/14
p6764
tp6765
sVRan (2010 re-issue)
p6766
(VRialto
p6767
V$124,673
p6768
V2/5/10
p6769
tp6770
sVRed Dawn (2012)
p6771
(VFD
p6772
V$44,806,783
p6773
V11/21/12
p6774
tp6775
sVJack the Giant Slayer
p6776
(VWB (NL)
p6777
V$65,187,603
p6778
V3/1/13
p6779
tp6780
sVSavages (2012)
p6781
(VUni.
p6782
V$47,382,068
p6783
V7/6/12
p6784
tp6785
sVThe Stroller Strategy
p6786
(VRialto
p6787
V$3,462
p6788
V6/14/13
p6789
tp6790
sVMagic Mike
p6791
(VWB
p6792
V$113,721,571
p6793
V6/29/12
p6794
tp6795
sVSympathy for Delicious
p6796
(VMaya
p6797
V$13,826
p6798
V4/29/11
p6799
tp6800
sVDate Night
p6801
(VFox
p6802
V$98,711,404
p6803
V4/9/10
p6804
tp6805
sVSeven Psychopaths
p6806
(VCBS
p6807
V$15,024,049
p6808
V10/12/12
p6809
tp6810
sVThe King's Speech
p6811
(VWein.
p6812
V$135,453,143
p6813
V11/26/10
p6814
tp6815
sVThe Debt
p6816
(VFocus
p6817
V$31,177,548
p6818
V8/31/11
p6819
tp6820
sVScary Movie 5
p6821
(VW/Dim.
p6822
V$32,015,787
p6823
V4/12/13
p6824
tp6825
sVRoar!
p6826
(VDrft.
p6827
V$105,521
p6828
V4/15/15
p6829
tp6830
sVOctober Baby (2012)
p6831
(VGold.
p6832
V$5,157,886
p6833
V3/23/12
p6834
tp6835
sVPassion
p6836
(VEOne
p6837
V$92,181
p6838
V8/30/13
p6839
tp6840
sV30 Minutes or Less
p6841
(VSony
p6842
V$37,053,924
p6843
V8/12/11
p6844
tp6845
sVPain and Gain
p6846
(VPar.
p6847
V$49,875,291
p6848
V4/26/13
p6849
tp6850
sVAftermath (2014)
p6851
(VFree
p6852
V$3,451
p6853
V11/28/14
p6854
tp6855
sVGoon
p6856
(VMagn.
p6857
V$4,168,528
p6858
V2/24/12
p6859
tp6860
sVThe Nutcracker in 3D
p6861
(VFree
p6862
V$195,459
p6863
V11/24/10
p6864
tp6865
sVLawless
p6866
(VWein.
p6867
V$37,400,127
p6868
V8/29/12
p6869
tp6870
sVInAPPropriate Comedy
p6871
(VFree
p6872
V$228,004
p6873
V3/22/13
p6874
tp6875
sVBeautiful Boy
p6876
(VAnch.
p6877
V$77,247
p6878
V6/3/11
p6879
tp6880
sVSound City
p6881
(VVari.
p6882
V$422,853
p6883
V2/1/13
p6884
tp6885
sVThe Nut Job
p6886
(VORF
p6887
V$64,251,541
p6888
V1/17/14
p6889
tp6890
sVEvil Dead (2013)
p6891
(VTriS
p6892
V$54,239,856
p6893
V4/5/13
p6894
tp6895
sVFree Angela and All Political Prisoners
p6896
(VCode
p6897
V$194,102
p6898
V4/5/13
p6899
tp6900
sVFaith of Our Fathers
p6901
(VPFR
p6902
V$891,926
p6903
V7/1/15
p6904
tp6905
sVL.A. Slasher
p6906
(VAD
p6907
V$2,421
p6908
V6/26/15
p6909
tp6910
sVFair Game (2010)
p6911
(VSum.
p6912
V$9,540,691
p6913
V11/5/10
p6914
tp6915
sVAlice in Wonderland (2010)
p6916
(VBV
p6917
V$334,191,110
p6918
V3/5/10
p6919
tp6920
sVBreak Ke Baad
p6921
(VRelbig.
p6922
V$427,628
p6923
V11/24/10
p6924
tp6925
sVThe Tillman Story
p6926
(VWein.
p6927
V$802,535
p6928
V8/20/10
p6929
tp6930
sVThe Conspirator
p6931
(VRAtt.
p6932
V$11,538,204
p6933
V4/15/11
p6934
tp6935
sVThe Other Guys
p6936
(VSony
p6937
V$119,219,978
p6938
V8/6/10
p6939
tp6940
sVThe Sapphires
p6941
(VWein.
p6942
V$2,450,867
p6943
V3/22/13
p6944
tp6945
sVTrue Story
p6946
(VFoxS
p6947
V$4,719,695
p6948
V4/17/15
p6949
tp6950
sVUnfinished Song
p6951
(VWein.
p6952
V$1,702,668
p6953
V6/21/13
p6954
tp6955
sVSummer Wars
p6956
(VGK
p6957
V$80,768
p6958
V12/24/10
p6959
tp6960
sVTyler Perry's Madea's Witness Protection
p6961
(VLGF
p6962
V$65,653,242
p6963
V6/29/12
p6964
tp6965
sVBrotherhood (2011)
p6966
(VP4
p6967
V$19,722
p6968
V2/18/11
p6969
tp6970
sVAnnie (2014)
p6971
(VSony
p6972
V$85,911,262
p6973
V12/19/14
p6974
tp6975
sVWish I Was Here
p6976
(VFocus
p6977
V$3,591,299
p6978
V7/18/14
p6979
tp6980
sVWalk of Shame
p6981
(VFocus
p6982
V$59,209
p6983
V5/2/14
p6984
tp6985
sVThe Big Year
p6986
(VFox
p6987
V$7,204,138
p6988
V10/14/11
p6989
tp6990
sVCowboys & Aliens
p6991
(VUni.
p6992
V$100,240,551
p6993
V7/29/11
p6994
tp6995
sVGringo Trails
p6996
(VIcar.
p6997
V$7,587
p6998
V9/4/14
p6999
tp7000
sVTeenage Mutant Ninja Turtles (2014)
p7001
(VPar.
p7002
V$191,204,754
p7003
V8/8/14
p7004
tp7005
sVHarry Potter and the Deathly Hallows Part 2
p7006
(VWB
p7007
V$381,011,219
p7008
V7/15/11
p7009
tp7010
sVAlphaville (2013 re-release)
p7011
(VRialto
p7012
V$47,696
p7013
V2/7/14
p7014
tp7015
sVThe Switch
p7016
(VMira.
p7017
V$27,779,426
p7018
V8/20/10
p7019
tp7020
sVMonsters, Inc. (3D)
p7021
(VBV
p7022
V$34,043,006
p7023
V12/19/12
p7024
tp7025
sVThe Pirates! Band of Misfits
p7026
(VSony
p7027
V$31,051,126
p7028
V4/27/12
p7029
tp7030
sVGabrielle (2014)
p7031
(VEOne
p7032
V$5,534
p7033
V4/18/14
p7034
tp7035
sVJoyful Noise
p7036
(VWB
p7037
V$30,932,113
p7038
V1/13/12
p7039
tp7040
sVMosquita y Mari
p7041
(VTFC
p7042
V$8,614
p7043
V8/3/12
p7044
tp7045
sVThe Kings of Summer
p7046
(VCBS
p7047
V$1,315,590
p7048
V5/31/13
p7049
tp7050
sVThe Grace Card
p7051
(VGold.
p7052
V$2,430,735
p7053
V2/25/11
p7054
tp7055
sVThe Dark Knight (2012 re-release)
p7056
(VWB
p7057
V$1,513,086
p7058
V7/19/12
p7059
tp7060
sVRed Riding Hood
p7061
(VWB
p7062
V$37,662,162
p7063
V3/11/11
p7064
tp7065
sVSingham
p7066
(VRelbig.
p7067
V$350,864
p7068
V7/22/11
p7069
tp7070
sVThe Connection
p7071
(VDrft.
p7072
V$190,534
p7073
V5/15/15
p7074
tp7075
sVConviction
p7076
(VFoxS
p7077
V$6,783,129
p7078
V10/15/10
p7079
tp7080
sVDope
p7081
(VORF
p7082
V$15,569,571
p7083
V6/19/15
p7084
tp7085
sVThe Railway Man
p7086
(VWein.
p7087
V$4,438,438
p7088
V4/11/14
p7089
tp7090
sVDear White People
p7091
(VRAtt.
p7092
V$4,404,154
p7093
V10/17/14
p7094
tp7095
sVAbraham Lincoln: Vampire Hunter
p7096
(VFox
p7097
V$37,519,139
p7098
V6/22/12
p7099
tp7100
sVInside Out
p7101
(VBV
p7102
V$286,592,302
p7103
V6/19/15
p7104
tp7105
sVBaggage Claim
p7106
(VFoxS
p7107
V$21,569,509
p7108
V9/27/13
p7109
tp7110
sVContempt (2013 re-release)
p7111
(VRialto
p7112
V$43,763
p7113
V9/6/13
p7114
tp7115
sVLong Shot: The Kevin Laue Story
p7116
(VDM
p7117
V$16,011
p7118
V10/26/12
p7119
tp7120
sVNeighbors
p7121
(VUni.
p7122
V$150,157,400
p7123
V5/9/14
p7124
tp7125
sVDylan Dog: Dead of Night
p7126
(VOMNI/FSR
p7127
V$1,186,538
p7128
V4/29/11
p7129
tp7130
sVAlbert Nobbs
p7131
(VRAtt.
p7132
V$3,014,696
p7133
V1/27/12
p7134
tp7135
sVCrooked Arrows
p7136
(VBPE
p7137
V$1,832,541
p7138
V5/18/12
p7139
tp7140
sVTere Naal Love Ho Gaya
p7141
(VUTV
p7142
V$177,743
p7143
V2/24/12
p7144
tp7145
sVThe Way Back
p7146
(VNM
p7147
V$2,701,859
p7148
V1/21/11
p7149
tp7150
sVThe Secret Life of Walter Mitty
p7151
(VFox
p7152
V$58,236,838
p7153
V12/25/13
p7154
tp7155
sVMy Soul to Take
p7156
(VUni.
p7157
V$14,744,435
p7158
V10/8/10
p7159
tp7160
sVChild 44
p7161
(VLG/S
p7162
V$1,224,330
p7163
V4/17/15
p7164
tp7165
sVLabios Rojos
p7166
(VLGF
p7167
V$136,163
p7168
V10/14/11
p7169
tp7170
sVWhen the Game Stands Tall
p7171
(VTriS
p7172
V$30,127,963
p7173
V8/22/14
p7174
tp7175
sVDolphin Tale
p7176
(VWB
p7177
V$72,286,779
p7178
V9/23/11
p7179
tp7180
sVJesus Henry Christ
p7181
(VEOne
p7182
V$20,183
p7183
V4/20/12
p7184
tp7185
sVThe Best of Me
p7186
(VRela.
p7187
V$26,766,213
p7188
V10/17/14
p7189
tp7190
sVTracks (2014)
p7191
(VWein.
p7192
V$510,007
p7193
V9/19/14
p7194
tp7195
sVThe Place Beyond the Pines
p7196
(VFocus
p7197
V$21,403,519
p7198
V3/29/13
p7199
tp7200
sVHeaven Knows What
p7201
(VRTWC
p7202
V$74,400
p7203
V5/29/15
p7204
tp7205
sVRacing Dreams
p7206
(VHann.
p7207
V$65,082
p7208
V5/21/10
p7209
tp7210
sVTransformers: Age of Extinction
p7211
(VPar.
p7212
V$245,439,076
p7213
V6/27/14
p7214
tp7215
sVThe Sisterhood of Night
p7216
(VFree
p7217
V$6,870
p7218
V4/10/15
p7219
tp7220
sVLike Crazy
p7221
(VParV
p7222
V$3,395,391
p7223
V10/28/11
p7224
tp7225
sVPaddington
p7226
(VW/Dim.
p7227
V$76,223,578
p7228
V1/16/15
p7229
tp7230
sVInception
p7231
(VWB
p7232
V$292,576,195
p7233
V7/16/10
p7234
tp7235
sVLe Joli Mai
p7236
(VIcar.
p7237
V$45,743
p7238
V9/13/13
p7239
tp7240
sVHello Herman
p7241
(VFree
p7242
V$8,437
p7243
V6/7/13
p7244
tp7245
sVSeven Days in Utopia
p7246
(VVisio
p7247
V$4,373,074
p7248
V9/2/11
p7249
tp7250
sVThe Ghost Writer
p7251
(VSum.
p7252
V$15,541,549
p7253
V2/19/10
p7254
tp7255
sVThe Film Critic
p7256
(VMBox
p7257
V$7,358
p7258
V5/15/15
p7259
tp7260
sVVito Bonafacci
p7261
(VCAVU
p7262
V$9,570
p7263
V5/6/11
p7264
tp7265
sVArbitrage
p7266
(VRAtt.
p7267
V$7,919,574
p7268
V9/14/12
p7269
tp7270
sVCantinflas
p7271
(VLGF
p7272
V$6,382,924
p7273
V8/29/14
p7274
tp7275
sVBeyond the Reach
p7276
(VRAtt.
p7277
V$45,895
p7278
V4/17/15
p7279
tp7280
sVThe Unknown Known
p7281
(VRTWC
p7282
V$276,497
p7283
V4/4/14
p7284
tp7285
sVHaywire
p7286
(VRela.
p7287
V$18,942,396
p7288
V1/20/12
p7289
tp7290
sVPiranha 3DD
p7291
(VW/Dim.
p7292
V$376,512
p7293
V6/1/12
p7294
tp7295
sVAmericons
p7296
(VAD
p7297
V$28,782
p7298
V1/23/15
p7299
tp7300
sVThe Lion King (in 3D)
p7301
(VBV
p7302
V$94,242,001
p7303
V9/16/11
p7304
tp7305
sVThe Last Song
p7306
(VBV
p7307
V$62,950,384
p7308
V3/31/10
p7309
tp7310
sVMoneyball
p7311
(VSony
p7312
V$75,605,492
p7313
V9/23/11
p7314
tp7315
sVTotal Recall (2012 re-release)
p7316
(VRialto
p7317
V$18,081
p7318
V8/10/12
p7319
tp7320
sVWarrior
p7321
(VLGF
p7322
V$13,657,115
p7323
V9/9/11
p7324
tp7325
sVThe Losers
p7326
(VWB
p7327
V$23,591,432
p7328
V4/23/10
p7329
tp7330
sVLimitless
p7331
(VRela.
p7332
V$79,249,455
p7333
V3/18/11
p7334
tp7335
sVTexas Killing Fields
p7336
(VAnch.
p7337
V$45,469
p7338
V10/14/11
p7339
tp7340
sVThe Guilt Trip
p7341
(VPar.
p7342
V$37,134,215
p7343
V12/19/12
p7344
tp7345
sVBig Game
p7346
(VEC
p7347
V$24,572
p7348
V6/26/15
p7349
tp7350
sVSol LeWitt
p7351
(VIcar.
p7352
V$12,841
p7353
V5/7/14
p7354
tp7355
sVI'll See You In My Dreams
p7356
(VBST
p7357
V$6,451,179
p7358
V5/15/15
p7359
tp7360
sVRango
p7361
(VPar.
p7362
V$123,477,607
p7363
V3/4/11
p7364
tp7365
sVGayby
p7366
(VTFC
p7367
V$14,062
p7368
V10/12/12
p7369
tp7370
sVThe Sessions
p7371
(VFoxS
p7372
V$6,002,451
p7373
V10/19/12
p7374
tp7375
sVThe Decent One
p7376
(VKL
p7377
V$21,327
p7378
V10/1/14
p7379
tp7380
sVEverything Must Go
p7381
(VRAtt.
p7382
V$2,711,643
p7383
V5/13/11
p7384
tp7385
sVHere and There
p7386
(VCP
p7387
V$27,156
p7388
V5/14/10
p7389
tp7390
sVLeap Year
p7391
(VUni.
p7392
V$25,918,920
p7393
V1/8/10
p7394
tp7395
sVSalinger
p7396
(VWein.
p7397
V$583,633
p7398
V9/6/13
p7399
tp7400
sVThe Fifth Estate
p7401
(VBV
p7402
V$3,255,008
p7403
V10/18/13
p7404
tp7405
sVMy Name is Khan
p7406
(VFoxS
p7407
V$4,018,771
p7408
V2/12/10
p7409
tp7410
sVTrance
p7411
(VFoxS
p7412
V$2,328,743
p7413
V4/5/13
p7414
tp7415
sVWinnie the Pooh
p7416
(VBV
p7417
V$26,692,846
p7418
V7/15/11
p7419
tp7420
sVValentine's Day
p7421
(VWB
p7422
V$110,485,654
p7423
V2/12/10
p7424
tp7425
sVI (2015)
p7426
(VAaF
p7427
V$1,449,232
p7428
V1/13/15
p7429
tp7430
sVBeastly
p7431
(VCBS
p7432
V$27,865,571
p7433
V3/4/11
p7434
tp7435
sVThe Apu Trilogy
p7436
(VJan.
p7437
V$360,757
p7438
V5/8/15
p7439
tp7440
sVLegend of the Guardians: The Owls of Ga'Hoole
p7441
(VWB
p7442
V$55,675,313
p7443
V9/24/10
p7444
tp7445
sVThe Book of Eli
p7446
(VWB
p7447
V$94,835,059
p7448
V1/15/10
p7449
tp7450
sVPawn Shop Chronicles
p7451
(VAnch.
p7452
V$8,088
p7453
V7/12/13
p7454
tp7455
sVThe Boxtrolls
p7456
(VFocus
p7457
V$50,837,305
p7458
V9/26/14
p7459
tp7460
sVDiana
p7461
(VEOne
p7462
V$335,359
p7463
V11/1/13
p7464
tp7465
sVTed
p7466
(VUni.
p7467
V$218,815,487
p7468
V6/29/12
p7469
tp7470
sVNon-Stop
p7471
(VUni.
p7472
V$92,168,600
p7473
V2/28/14
p7474
tp7475
sVLooper
p7476
(VTriS
p7477
V$66,486,205
p7478
V9/28/12
p7479
tp7480
sVThe Devil's Violinist
p7481
(VFree
p7482
V$11,294
p7483
V1/30/15
p7484
tp7485
sVZero Dark Thirty
p7486
(VSony
p7487
V$95,720,716
p7488
V12/19/12
p7489
tp7490
sVBeyond the Mask
p7491
(VGathr
p7492
V$1,234,232
p7493
V4/6/15
p7494
tp7495
sVEasy A
p7496
(VSGem
p7497
V$58,401,464
p7498
V9/17/10
p7499
tp7500
sVDon McKay
p7501
(VImag.
p7502
V$13,722
p7503
V4/2/10
p7504
tp7505
sVJackass Presents: Bad Grandpa
p7506
(VPar.
p7507
V$102,003,019
p7508
V10/25/13
p7509
tp7510
sVOde to My Father
p7511
(VCJ
p7512
V$2,300,121
p7513
V12/25/14
p7514
tp7515
sVThe Host (2013)
p7516
(VORF
p7517
V$26,627,201
p7518
V3/29/13
p7519
tp7520
sVKick
p7521
(VUTV
p7522
V$2,472,695
p7523
V7/25/14
p7524
tp7525
sVAvengers: Age of Ultron
p7526
(VBV
p7527
V$455,308,687
p7528
V5/1/15
p7529
tp7530
sV42
p7531
(VWB
p7532
V$95,020,213
p7533
V4/12/13
p7534
tp7535
sVBrief Reunion
p7536
(VSE
p7537
V$6,601
p7538
V1/18/13
p7539
tp7540
sVThe Endless Summer (2014 re-release)
p7541
(VMont.
p7542
V$10,233
p7543
V7/23/14
p7544
tp7545
sVHanna
p7546
(VFocus
p7547
V$40,259,119
p7548
V4/8/11
p7549
tp7550
sVLarry Crowne
p7551
(VUni.
p7552
V$35,608,245
p7553
V7/1/11
p7554
tp7555
sVThe Homesman
p7556
(VSaban
p7557
V$2,429,989
p7558
V11/14/14
p7559
tp7560
sVLast Vegas
p7561
(VCBS
p7562
V$63,914,167
p7563
V11/1/13
p7564
tp7565
sVThe Rite
p7566
(VWB (NL)
p7567
V$33,047,633
p7568
V1/28/11
p7569
tp7570
sVThe Pyramid
p7571
(VFox
p7572
V$2,756,333
p7573
V12/5/14
p7574
tp7575
sVLet Me In
p7576
(VOver.
p7577
V$12,134,935
p7578
V10/1/10
p7579
tp7580
sVGuardians of the Galaxy
p7581
(VBV
p7582
V$333,176,600
p7583
V8/1/14
p7584
tp7585
sVThe Man in the White Suit (2012 re-release)
p7586
(VRialto
p7587
V$8,718
p7588
V11/16/12
p7589
tp7590
sVMr. Peabody & Sherman
p7591
(VFox
p7592
V$111,506,430
p7593
V3/7/14
p7594
tp7595
sVDallas Buyers Club
p7596
(VFocus
p7597
V$27,298,285
p7598
V11/1/13
p7599
tp7600
s.