ccollections
defaultdict
p0
(c__builtin__
list
p1
tp2
Rp3
VNightmare on Elm Street
p4
(lp5
VFreddy Vs. Jason
p6
aVA Nightmare on Elm Street (2010)
p7
aVA Nightmare on Elm Street 4: The Dream Master
p8
aVA Nightmare on Elm Street 3: Dream Warriors
p9
aVFreddy's Dead: The Final Nightmare
p10
aVA Nightmare on Elm Street 2: Freddy's Revenge
p11
aVA Nightmare on Elm Street
p12
aVA Nightmare on Elm Street 5: The Dream Child
p13
aVWes Craven's New Nightmare
p14
asVIron Man
p15
(lp16
VIron Man 3
p17
aVIron Man
p18
aVIron Man 2
p19
asVRobert Langdon
p20
(lp21
VThe Da Vinci Code
p22
aVAngels & Demons
p23
asVIndiana Jones
p24
(lp25
VIndiana Jones and the Kingdom of the Crystal Skull
p26
aVRaiders of the Lost Ark
p27
aVIndiana Jones and the Last Crusade
p28
aVIndiana Jones and the Temple of Doom
p29
aVRaiders of the Lost Ark (Re-issue) (1982)(Re-release)
p30
aVRaiders of the Lost Ark (Re-issue) (1983)(Re-release)
p31
asVMaze Runner
p32
(lp33
VThe Maze Runner
p34
asVThe Pink Panther
p35
(lp36
VThe Pink Panther (2006)
p37
aVRevenge of the Pink Panther
p38
aVReturn of the Pink Panther
p39
aVThe Pink Panther 2
p40
aVThe Pink Panther Strikes Again
p41
aVA Shot in the Dark
p42
aVThe Pink Panther (1964)
p43
aVTrail of the Pink Panther
p44
aVCurse of the Pink Panther
p45
aVSon of the Pink Panther
p46
asVTaken
p47
(lp48
VTaken
p49
aVTaken 2
p50
aVTaken 3
p51
asVJackass
p52
(lp53
VJackass 3-D
p54
aVJackass Presents: Bad Grandpa
p55
aVJackass: Number Two
p56
aVJackass: The Movie
p57
asVDivergent
p58
(lp59
VDivergent
p60
aVThe Divergent Series: Insurgent
p61
asVOcean's 11
p62
(lp63
VOcean's Eleven
p64
aVOcean's Twelve
p65
aVOcean's Thirteen
p66
asVHerbie the Love Bug
p67
(lp68
VHerbie: Fully Loaded
p69
aVThe Love Bug
p70
aVHerbie Rides Again
p71
aVHerbie Goes to Monte Carlo
p72
aVHerbie Goes Bananas
p73
aVHerbie Goes to Monte Carlo (Re-issue)(Re-release)
p74
aVHerbie Goes Bananas (Re-issue)(Re-release)
p75
aVHerbie Rides Again (Re-issue)(Re-release)
p76
asVUniversal Soldier
p77
(lp78
VUniversal Soldier
p79
aVUniversal Soldier: The Return
p80
aVUniversal Soldier: Day of Reckoning
p81
asVThe Hangover
p82
(lp83
VThe Hangover
p84
aVThe Hangover Part II
p85
aVThe Hangover Part III
p86
asVFriday
p87
(lp88
VNext Friday
p89
aVFriday After Next
p90
aVFriday
p91
asVDiary of a Wimpy Kid
p92
(lp93
VDiary of a Wimpy Kid
p94
aVDiary of a Wimpy Kid: Rodrick Rules
p95
aVDiary of a Wimpy Kid: Dog Days
p96
asVDumb and Dumber
p97
(lp98
VDumb and Dumber
p99
aVDumb and Dumber To
p100
aVDumb and Dumberer: When Harry Met Lloyd
p101
asVAvengers
p102
(lp103
VMarvel's The Avengers
p104
aVAvengers: Age of Ultron
p105
asVRobocop
p106
(lp107
VRoboCop (2014)
p108
aVRobocop
p109
aVRobocop 2
p110
aVRobocop 3
p111
asVBlade
p112
(lp113
VBlade II
p114
aVBlade
p115
aVBlade: Trinity
p116
asVBack to the Future
p117
(lp118
VBack to the Future
p119
aVBack to the Future Part II
p120
aVBack to the Future Part III
p121
asVThor
p122
(lp123
VThor: The Dark World
p124
aVThor
p125
asVOh, God!
p126
(lp127
VOh, God!
p128
aVOh, God! You Devil!
p129
aVOh, God! Book II
p130
asVTransporter
p131
(lp132
VTransporter 2
p133
aVTransporter 3
p134
aVThe Transporter
p135
asVEvangelion
p136
(lp137
VEvangelion: 3.0 You Can (Not) Redo
p138
aVEvangelion 2.0: You Can (Not) Advance
p139
aVEvangelion 1.0 You Are (Not) Alone
p140
asVScream
p141
(lp142
VScream
p143
aVScream 2
p144
aVScream 3
p145
aVScream 4
p146
asVMen in Black
p147
(lp148
VMen in Black
p149
aVMen in Black II
p150
aVMIB 3
p151
asVThe Muppets
p152
(lp153
VThe Muppets
p154
aVThe Muppet Movie
p155
aVMuppets Most Wanted
p156
aVMuppet Treasure Island
p157
aVThe Great Muppet Caper
p158
aVThe Muppet Christmas Carol
p159
aVThe Muppets Take Manhattan
p160
aVMuppets from Space
p161
asVThe Hunger Games
p162
(lp163
VThe Hunger Games: Catching Fire
p164
aVThe Hunger Games
p165
aVThe Hunger Games: Mockingjay - Part 1
p166
asVTwilight
p167
(lp168
VThe Twilight Saga: Eclipse
p169
aVThe Twilight Saga: New Moon
p170
aVThe Twilight Saga: Breaking Dawn Part 2
p171
aVThe Twilight Saga: Breaking Dawn Part 1
p172
aVTwilight
p173
asVToy Story
p174
(lp175
VToy Story 3
p176
aVToy Story 2
p177
aVToy Story
p178
aVToy Story / Toy Story 2 (3D)
p179
asVBeverly Hills Cop
p180
(lp181
VBeverly Hills Cop
p182
aVBeverly Hills Cop II
p183
aVBeverly Hills Cop III
p184
asVMadea
p185
(lp186
VTyler Perry's Madea Goes to Jail
p187
aVTyler Perry's Madea's Witness Protection
p188
aVTyler Perry's Madea's Family Reunion
p189
aVTyler Perry's Madea's Big Happy Family
p190
aVTyler Perry's A Madea Christmas
p191
aVTyler Perry's Diary of a Mad Black Woman
p192
asVConan
p193
(lp194
VConan the Barbarian
p195
aVConan the Destroyer
p196
aVConan the Barbarian (2011)
p197
asVPsycho
p198
(lp199
VPsycho II
p200
aVPsycho
p201
aVPsycho (1998)
p202
aVPsycho III
p203
asVThe Mighty Ducks
p204
(lp205
VThe Mighty Ducks
p206
aVD2: The Mighty Ducks
p207
aVD3: The Mighty Ducks
p208
asVSaw
p209
(lp210
VSaw II
p211
aVSaw III
p212
aVSaw IV
p213
aVSaw V
p214
aVSaw
p215
aVSaw 3D
p216
aVSaw VI
p217
asVBefore
p218
(lp219
VBefore Midnight
p220
aVBefore Sunset
p221
aVBefore Sunrise
p222
asVWitch Mountain
p223
(lp224
VRace to Witch Mountain
p225
aVEscape to Witch Mountain
p226
aVReturn from Witch Mountain
p227
asVHarry Potter
p228
(lp229
VHarry Potter and the Deathly Hallows Part 2
p230
aVHarry Potter and the Sorcerer's Stone
p231
aVHarry Potter and the Half-Blood Prince
p232
aVHarry Potter and the Deathly Hallows Part 1
p233
aVHarry Potter and the Order of the Phoenix
p234
aVHarry Potter and the Goblet of Fire
p235
aVHarry Potter and the Chamber of Secrets
p236
aVHarry Potter and the Prisoner of Azkaban
p237
asVRush Hour
p238
(lp239
VRush Hour 2
p240
aVRush Hour
p241
aVRush Hour 3
p242
asVCare Bears
p243
(lp244
VThe Care Bears Movie 
p245
aVThe Care Bears Movie 2
p246
aVThe Care Bears Movie 3
p247
asVSpider-Man
p248
(lp249
VSpider-Man
p250
aVSpider-Man 2
p251
aVSpider-Man 3
p252
aVThe Amazing Spider-Man
p253
aVThe Amazing Spider-Man 2
p254
asVMeatballs
p255
(lp256
VMeatballs
p257
aVMeatballs II
p258
aVMeatballs III
p259
asVJames Bond
p260
(lp261
VSkyfall
p262
aVQuantum of Solace
p263
aVCasino Royale
p264
aVDie Another Day
p265
aVThe World Is Not Enough
p266
aVTomorrow Never Dies
p267
aVGoldenEye
p268
aVMoonraker
p269
aVOctopussy
p270
aVThunderball
p271
aVNever Say Never Again
p272
aVFor Your Eyes Only
p273
aVThe Living Daylights
p274
aVGoldfinger
p275
aVA View to a Kill
p276
aVThe Spy Who Loved Me
p277
aVDiamonds Are Forever
p278
aVYou Only Live Twice
p279
aVLive and Let Die
p280
aVLicense to Kill
p281
aVFrom Russia, with Love
p282
aVOn Her Majesty's Secret Service
p283
aVThe Man with the Golden Gun
p284
aVDr. No
p285
asVThe Matrix
p286
(lp287
VThe Matrix Reloaded
p288
aVThe Matrix
p289
aVThe Matrix Revolutions
p290
asVAlvin and the Chipmunks
p291
(lp292
VAlvin and the Chipmunks: The Squeakquel
p293
aVAlvin and the Chipmunks
p294
aVAlvin and the Chipmunks: Chipwrecked
p295
aVThe Chipmunk Adventure
p296
asVLethal Weapon
p297
(lp298
VLethal Weapon 2
p299
aVLethal Weapon 3
p300
aVLethal Weapon 4
p301
aVLethal Weapon
p302
asVBest Man
p303
(lp304
VThe Best Man Holiday
p305
aVThe Best Man
p306
asVHannibal Lecter
p307
(lp308
VHannibal
p309
aVThe Silence of the Lambs
p310
aVRed Dragon
p311
aVHannibal Rising
p312
aVManhunter
p313
asVAmerican Pie
p314
(lp315
VAmerican Pie 2
p316
aVAmerican Wedding
p317
aVAmerican Pie
p318
aVAmerican Reunion
p319
asVThe Hobbit
p320
(lp321
VThe Hobbit: An Unexpected Journey
p322
aVThe Hobbit: The Desolation of Smaug
p323
aVThe Hobbit: The Battle of the Five Armies
p324
asVThe Work and the Glory
p325
(lp326
VThe Work and the Glory
p327
aVThe Work and the Glory II: American Zion
p328
aVThe Work and the Glory III: A House Divided
p329
asVGodzilla
p330
(lp331
VGodzilla (2014)
p332
aVGodzilla
p333
aVGodzilla 2000
p334
aVGodzilla 1985
p335
aVGodzilla (Original Japanese Version)
p336
asVThe Santa Clause
p337
(lp338
VThe Santa Clause
p339
aVThe Santa Clause 2
p340
aVThe Santa Clause 3: The Escape Clause
p341
asVThe Godfather
p342
(lp343
VThe Godfather
p344
aVThe Godfather Part III
p345
aVThe Godfather Part II
p346
aVThe Godfather (Re-issue)(Re-release)
p347
asVDirty Harry
p348
(lp349
VSudden Impact
p350
aVThe Enforcer
p351
aVMagnum Force
p352
aVThe Dead Pool
p353
aVDirty Harry
p354
asVThe Karate Kid
p355
(lp356
VThe Karate Kid
p357
aVThe Karate Kid Part II
p358
aVThe Karate Kid
p359
aVThe Karate Kid Part III
p360
aVThe Next Karate Kid
p361
asVThe Bad News Bears
p362
(lp363
VBad News Bears
p364
aVThe Bad News Bears
p365
aVThe Bad News Bears in Breaking Training
p366
aVThe Bad News Bears Go to Japan
p367
asVFifty Shades
p368
(lp369
VFifty Shades of Grey
p370
asVShiloh
p371
(lp372
VShiloh
p373
aVShiloh 2: Shiloh Season
p374
asVFockers
p375
(lp376
VMeet the Fockers
p377
aVMeet the Parents
p378
aVLittle Fockers
p379
asVEl Mariachi
p380
(lp381
VOnce Upon a Time in Mexico
p382
aVDesperado
p383
aVEl Mariachi
p384
asVArthur
p385
(lp386
VArthur
p387
aVArthur (2011)
p388
aVArthur 2: On the Rocks
p389
asVBig Momma
p390
(lp391
VBig Momma's House
p392
aVBig Momma's House 2
p393
aVBig Mommas: Like Father, Like Son
p394
asVDespicable Me
p395
(lp396
VDespicable Me 2
p397
aVDespicable Me
p398
aVMinions
p399
asVErnest
p400
(lp401
VErnest Saves Christmas
p402
aVErnest Goes to Jail
p403
aVErnest Goes to Camp
p404
aVErnest Scared Stupid
p405
aVErnest Rides Again
p406
asVMission: Impossible
p407
(lp408
VMission: Impossible II
p409
aVMission: Impossible - Ghost Protocol
p410
aVMission: Impossible
p411
aVMission: Impossible III
p412
asVFright Night
p413
(lp414
VFright Night
p415
aVFright Night (2011)
p416
aVFright Night II
p417
asVX-Men
p418
(lp419
VX-Men: The Last Stand
p420
aVX-Men: Days of Future Past
p421
aVX2: X-Men United
p422
aVX-Men Origins: Wolverine
p423
aVX-Men
p424
aVX-Men: First Class
p425
aVThe Wolverine
p426
asVRambo
p427
(lp428
VRambo: First Blood Part II
p429
aVRambo III
p430
aVFirst Blood
p431
aVRambo
p432
asVJaws
p433
(lp434
VJaws
p435
aVJaws 2
p436
aVJaws 3-D
p437
aVJaws IV: The Revenge
p438
aVJaws 2 (1980 re-issue)(Re-release)
p439
asVInsidious
p440
(lp441
VInsidious Chapter 2
p442
aVInsidious
p443
aVInsidious Chapter 3
p444
asVAlien
p445
(lp446
VPrometheus
p447
aVAliens
p448
aVAlien Vs. Predator
p449
aVAlien
p450
aVAlien 3
p451
aVAlien Resurrection
p452
aVAliens Vs. Predator - Requiem
p453
asVPolice Academy
p454
(lp455
VPolice Academy
p456
aVPolice Academy 2: Their First Assignment
p457
aVPolice Academy 3: Back in Training
p458
aVPolice Academy 4: Citizens on Patrol
p459
aVPolice Academy 5: Assignment: Miami Beach
p460
aVPolice Academy 6: City Under Siege
p461
aVPolice Academy 7: Mission to Moscow
p462
asVIce Age
p463
(lp464
VIce Age: Dawn of the Dinosaurs
p465
aVIce Age: The Meltdown
p466
aVIce Age
p467
aVIce Age: Continental Drift
p468
asVTerminator
p469
(lp470
VTerminator 2: Judgment Day
p471
aVTerminator 3: Rise of the Machines
p472
aVTerminator Salvation
p473
aVTerminator: Genisys
p474
aVThe Terminator
p475
asVThe Omen
p476
(lp477
VThe Omen
p478
aVThe Omen (2006)
p479
aVDamien: The Omen Part II
p480
aVThe Final Conflict: Omen III
p481
asVCaptain America
p482
(lp483
VCaptain America: The Winter Soldier
p484
aVCaptain America: The First Avenger
p485
asVBarbershop
p486
(lp487
VBarbershop
p488
aVBarbershop 2: Back in Business
p489
aVBeauty Shop((spin-off))
p490
asVParanormal Activity
p491
(lp492
VParanormal Activity
p493
aVParanormal Activity 3
p494
aVParanormal Activity 2
p495
aVParanormal Activity 4
p496
aVParanormal Activity: The Marked Ones
p497
asVPokemon
p498
(lp499
VPokemon: The First Movie
p500
aVPokemon: The Movie 2000
p501
aVPokemon 3: The Movie
p502
aVPokemon 4Ever
p503
aVPokemon Heroes
p504
asVSuperman
p505
(lp506
VMan of Steel
p507
aVSuperman Returns
p508
aVSuperman
p509
aVSuperman II
p510
aVSuperman III
p511
aVSuperman IV: The Quest for Peace
p512
asVReturn of the Living Dead
p513
(lp514
VReturn of the Living Dead
p515
aVReturn of the Living Dead 2
p516
aVReturn of the Living Dead III
p517
aVDead 5: Rave to the Grave
p518
asVHarold and Kumar
p519
(lp520
VHarold and Kumar Escape from Guantanamo Bay
p521
aVA Very Harold & Kumar 3D Christmas
p522
aVHarold and Kumar Go to White Castle
p523
asVFree Willy
p524
(lp525
VFree Willy
p526
aVFree Willy 2: The Adventure Home
p527
aVFree Willy 3: The Rescue
p528
asV3 Ninjas
p529
(lp530
V3 Ninjas
p531
aV3 Ninjas Kick Back
p532
aV3 Ninjas Knuckle Up
p533
aV3 Ninjas: High Noon at Mega Mountain
p534
asVThe Smurfs
p535
(lp536
VThe Smurfs
p537
aVThe Smurfs 2
p538
aVThe Smurfs and the Magic Flute
p539
asVStar Trek
p540
(lp541
VStar Trek
p542
aVStar Trek Into Darkness
p543
aVStar Trek IV: The Voyage Home
p544
aVStar Trek: First Contact
p545
aVStar Trek: The Motion Picture
p546
aVStar Trek II: The Wrath of Khan
p547
aVStar Trek III: The Search for Spock
p548
aVStar Trek: Generations
p549
aVStar Trek VI: The Undiscovered Country
p550
aVStar Trek: Insurrection
p551
aVStar Trek V: The Final Frontier
p552
aVStar Trek: Nemesis
p553
asVBourne
p554
(lp555
VThe Bourne Ultimatum
p556
aVThe Bourne Supremacy
p557
aVThe Bourne Identity
p558
aVThe Bourne Legacy
p559
asVMillennium
p560
(lp561
VThe Girl with the Dragon Tattoo
p562
aVThe Girl Who Played with Fire
p563
aVThe Girl Who Kicked the Hornet's Nest
p564
asVFriday the 13th
p565
(lp566
VFreddy Vs. Jason
p567
aVFriday the 13th (2009)
p568
aVFriday the 13th (1980)
p569
aVFriday the 13th Part III
p570
aVFriday the 13th: Final Chapter
p571
aVFriday the 13th - Part V
p572
aVFriday the 13th Part 2
p573
aVFriday the 13th Part VI
p574
aVFriday the 13th Part VII
p575
aVJason Goes to Hell: The Final Friday
p576
aVFriday the 13th Part VIII
p577
aVJason X
p578
asVMissing in Action
p579
(lp580
VMissing in Action
p581
aVMissing in Action II: The Beginning
p582
aVBraddock: Missing in Action III
p583
asVJurassic Park
p584
(lp585
VJurassic World
p586
aVJurassic Park
p587
aVThe Lost World: Jurassic Park
p588
aVJurassic Park III
p589
asVAlex Cross
p590
(lp591
VAlong Came a Spider
p592
aVKiss the Girls
p593
aVAlex Cross
p594
asVTransformers
p595
(lp596
VTransformers: Revenge of the Fallen
p597
aVTransformers: Dark of the Moon
p598
aVTransformers
p599
aVTransformers: Age of Extinction
p600
aVTransformers: The Movie
p601
asVResident Evil
p602
(lp603
VResident Evil: Afterlife
p604
aVResident Evil: Apocalypse
p605
aVResident Evil: Extinction
p606
aVResident Evil: Retribution
p607
aVResident Evil
p608
asVThe Fast and the Furious
p609
(lp610
VFurious 7
p611
aVFast & Furious 6
p612
aVFast Five
p613
aVFast and Furious
p614
aVThe Fast and the Furious
p615
aV2 Fast 2 Furious
p616
aVThe Fast and the Furious: Tokyo Drift
p617
asVDie Hard
p618
(lp619
VLive Free or Die Hard
p620
aVDie Hard 2: Die Harder
p621
aVDie Hard: With A Vengeance
p622
aVDie Hard
p623
aVA Good Day to Die Hard
p624
asVPlanet of the Apes
p625
(lp626
VDawn of the Planet of the Apes
p627
aVPlanet of the Apes (2001)
p628
aVRise of the Planet of the Apes
p629
aVPlanet of the Apes
p630
aVBeneath the Planet of the Apes
p631
aVEscape from the Planet of the Apes
p632
aVConquest of the Planet of the Apes
p633
aVBattle for the Planet of the Apes
p634
asVCrocodile Dundee
p635
(lp636
VCrocodile Dundee
p637
aVCrocodile Dundee II
p638
aVCrocodile Dundee in Los Angeles
p639
asVFinal Destination
p640
(lp641
VThe Final Destination
p642
aVFinal Destination 3
p643
aVFinal Destination
p644
aVFinal Destination 2
p645
aVFinal Destination 5
p646
asVMad Max
p647
(lp648
VMad Max: Fury Road
p649
aVMad Max Beyond Thunderdome
p650
aVThe Road Warrior
p651
aVMad Max
p652
asVRocky
p653
(lp654
VRocky IV
p655
aVRocky III
p656
aVRocky
p657
aVRocky II
p658
aVRocky Balboa
p659
aVRocky V
p660
aVRocky III (Re-issue)(Re-release)
p661
asVStep Up
p662
(lp663
VStep Up
p664
aVStep Up 2 the Streets
p665
aVStep Up 3-D
p666
aVStep Up Revolution
p667
aVStep Up All In
p668
asVThe Neverending Story
p669
(lp670
VThe Neverending Story
p671
aVThe Neverending Story II
p672
aVThe Neverending Story III
p673
asVThe Purge
p674
(lp675
VThe Purge: Anarchy
p676
aVThe Purge
p677
asVStar Wars
p678
(lp679
VStar Wars: Episode I - The Phantom Menace
p680
aVStar Wars: Episode III - Revenge of the Sith
p681
aVStar Wars
p682
aVStar Wars: Episode II - Attack of the Clones
p683
aVReturn of the Jedi
p684
aVThe Empire Strikes Back
p685
aVStar Wars (Special Edition)(Re-release)
p686
aVThe Empire Strikes Back (Special Edition)(Re-release)
p687
aVReturn of the Jedi (Special Edition)(Re-release)
p688
aVStar Wars: The Clone Wars
p689
aVStar Wars (Re-issue)(Re-release)
p690
aVThe Empire Strikes Back (Re-issue)(Re-release)
p691
aVReturn of the Jedi (Re-issue)(Re-release)
p692
aVAttack of the Clones: The IMAX Experience (IMAX)(Re-release)
p693
asVAtlas Shrugged Franchise
p694
(lp695
VAtlas Shrugged: Part I
p696
aVAtlas Shrugged: Part II
p697
aVAtlas Shrugged Part III: Who Is John Galt?
p698
asVThe Exorcist
p699
(lp700
VThe Exorcist
p701
aVExorcist: The Beginning
p702
aVThe Exorcist Director's Cut(Re-release)
p703
aVExorcist II: The Heretic
p704
aVThe Exorcist III
p705
aVDominion: Prequel to the Exorcist
p706
asVPorky's
p707
(lp708
VPorky's
p709
aVPorky's II: The Next Day
p710
aVPorky's Revenge (Part III)
p711
aVPorky's (Re-issue)(Re-release)
p712
asVLEGO
p713
(lp714
VThe LEGO Movie
p715
asVHalloween
p716
(lp717
VHalloween (2007)
p718
aVHalloween: H20
p719
aVHalloween
p720
aVHalloween II (2009)
p721
aVHalloween: Resurrection
p722
aVHalloween II
p723
aVHalloween 4: The Return of Michael Myers
p724
aVHalloween: The Curse of Michael Myers
p725
aVHalloween III: Season of the Witch
p726
aVHalloween 5
p727
asVPirates of the Caribbean
p728
(lp729
VPirates of the Caribbean: Dead Man's Chest
p730
aVPirates of the Caribbean: At World's End
p731
aVPirates of the Caribbean: The Curse of the Black Pearl
p732
aVPirates of the Caribbean: On Stranger Tides
p733
asVTeenage Mutant Ninja Turtles
p734
(lp735
VTeenage Mutant Ninja Turtles (2014)
p736
aVTeenage Mutant Ninja Turtles
p737
aVTeenage Mutant Ninja Turtles II
p738
aVTMNT
p739
aVTeenage Mutant Ninja Turtles III
p740
asVThe Expendables
p741
(lp742
VThe Expendables
p743
aVThe Expendables 2
p744
aVThe Expendables 3
p745
asVIron Eagle
p746
(lp747
VIron Eagle
p748
aVIron Eagle II
p749
aVAces: Iron Eagle III
p750
asVPoltergeist
p751
(lp752
VPoltergeist
p753
aVPoltergeist II: The Other Side
p754
aVPoltergeist III
p755
aVPoltergeist (re-issue)(Re-release)
p756
asVSpy Kids
p757
(lp758
VSpy Kids
p759
aVSpy Kids 3D: Game Over
p760
aVSpy Kids 2: The Island of Lost Dreams
p761
aVSpy Kids: All the Time in the World
p762
asVThe Mummy
p763
(lp764
VThe Mummy Returns
p765
aVThe Mummy
p766
aVThe Mummy: Tomb of the Dragon Emperor
p767
aVThe Scorpion King
p768
asVMadagascar
p769
(lp770
VMadagascar 3: Europe's Most Wanted
p771
aVMadagascar
p772
aVMadagascar: Escape 2 Africa
p773
aVPenguins of Madagascar
p774
asVUnderworld
p775
(lp776
VUnderworld Awakening
p777
aVUnderworld: Evolution
p778
aVUnderworld
p779
aVUnderworld: Rise of the Lycans
p780
asVHighlander
p781
(lp782
VHighlander 2: The Quickening
p783
aVHighlander: Endgame
p784
aVHighlander 3: The Final Dimension
p785
aVHighlander
p786
asVMarvel Cinematic Universe
p787
(lp788
VMarvel's The Avengers
p789
aVAvengers: Age of Ultron
p790
aVIron Man 3
p791
aVGuardians of the Galaxy
p792
aVIron Man
p793
aVIron Man 2
p794
aVCaptain America: The Winter Soldier
p795
aVThor: The Dark World
p796
aVThor
p797
aVCaptain America: The First Avenger
p798
aVThe Incredible Hulk
p799
asVHouse Party
p800
(lp801
VHouse Party
p802
aVHouse Party 2
p803
aVHouse Party 3
p804
asVVacation
p805
(lp806
VChristmas Vacation
p807
aVNational Lampoon's Vacation
p808
aVEuropean Vacation
p809
aVVegas Vacation
p810
asVThe Chronicles of Narnia
p811
(lp812
VThe Chronicles of Narnia: The Lion, the Witch and the Wardrobe
p813
aVThe Chronicles of Narnia: Prince Caspian
p814
aVThe Chronicles of Narnia: The Voyage of the Dawn Treader
p815
asVV/H/S
p816
(lp817
VV/H/S
p818
aVV/H/S/2
p819
aVV/H/S: Viral
p820
asVOng Bak
p821
(lp822
VOng Bak: The Thai Warrior
p823
aVOng Bak 2: The Beginning
p824
aVOng Bak 3
p825
asVAmerican Ninja
p826
(lp827
VAmerican Ninja
p828
aVAmerican Ninja 2
p829
aVAmerican Ninja 3: Blood Hunt
p830
aVAmerican Ninja 4: The Annihilation
p831
asVAustin Powers
p832
(lp833
VAustin Powers in Goldmember
p834
aVAustin Powers: The Spy Who Shagged Me
p835
aVAustin Powers: International Man of Mystery
p836
asVKung Fu Panda
p837
(lp838
VKung Fu Panda
p839
aVKung Fu Panda 2
p840
asVMajor League
p841
(lp842
VMajor League
p843
aVMajor League II
p844
aVMajor League: Back to the Minors
p845
asVRiddick
p846
(lp847
VThe Chronicles of Riddick
p848
aVRiddick
p849
aVPitch Black
p850
asVHome Alone
p851
(lp852
VHome Alone
p853
aVHome Alone 2: Lost in New York
p854
aVHome Alone 3
p855
asVJack Ryan
p856
(lp857
VClear and Present Danger
p858
aVThe Hunt for Red October
p859
aVThe Sum of All Fears
p860
aVPatriot Games
p861
aVJack Ryan: Shadow Recruit
p862
asVScary Movie
p863
(lp864
VScary Movie
p865
aVScary Movie 3
p866
aVScary Movie 4
p867
aVScary Movie 2
p868
aVScary Movie 5
p869
asVPredator
p870
(lp871
VAlien Vs. Predator
p872
aVPredator
p873
aVPredators
p874
aVAliens Vs. Predator - Requiem
p875
aVPredator 2
p876
asVAmityville
p877
(lp878
VThe Amityville Horror
p879
aVThe Amityville Horror (2005)
p880
aVAmityville II: The Possession
p881
aVAmityville 3-D
p882
asVRugrats
p883
(lp884
VThe Rugrats Movie
p885
aVRugrats in Paris: The Movie
p886
aVRugrats Go Wild
p887
asVBenji
p888
(lp889
VBenji
p890
aVBenji the Hunted
p891
aVFor the Love of Benji
p892
aVOh, Heavenly Dog!
p893
aVBenji Off the Leash
p894
asVTexas Chainsaw Massacre
p895
(lp896
VThe Texas Chainsaw Massacre
p897
aVThe Texas Chainsaw Massacre: The Beginning
p898
aVTexas Chainsaw 3D
p899
aVThe Texas Chainsaw Massacre
p900
aVThe Texas Chainsaw Massacre 2
p901
aVLeatherface: The Texas Chainsaw Massacre III
p902
aVTexas Chainsaw Massacre: The Next Generation(Re-release)
p903
aVReturn of the Texas Chainsaw Massacre
p904
asVDhoom
p905
(lp906
VDhoom 3
p907
aVDhoom 2
p908
aVDhoom
p909
asVHellraiser
p910
(lp911
VHellraiser
p912
aVHellraiser III: Hell on Earth
p913
aVHellbound: Hellraiser II
p914
aVHellraiser 4: Bloodline
p915
aVClive Barker Presents: Hellraiser
p916
asVHow to Train Your Dragon
p917
(lp918
VHow to Train Your Dragon
p919
aVHow to Train Your Dragon 2
p920
asVShrek
p921
(lp922
VShrek 2
p923
aVShrek the Third
p924
aVShrek
p925
aVShrek Forever After
p926
aVPuss in Boots
p927
asVLook Who's Talking
p928
(lp929
VLook Who's Talking
p930
aVLook Who's Talking Too
p931
aVLook Who's Talking Now
p932
asVSmokey and the Bandit
p933
(lp934
VSmokey and the Bandit
p935
aVSmokey and the Bandit II
p936
aVSmokey & the Bandit Part III
p937
asVChild's Play
p938
(lp939
VChild's Play
p940
aVBride of Chucky
p941
aVChild's Play 2
p942
aVSeed of Chucky
p943
aVChild's Play 3
p944
asVThe Lord of the Rings
p945
(lp946
VThe Lord of the Rings: The Return of the King
p947
aVThe Lord of the Rings: The Two Towers
p948
aVThe Lord of the Rings: The Fellowship of the Ring
p949
aVThe Hobbit: An Unexpected Journey
p950
aVThe Hobbit: The Desolation of Smaug
p951
aVThe Hobbit: The Battle of the Five Armies
p952
aVThe Lord of the Rings (1978)
p953
asVThe Naked Gun
p954
(lp955
VThe Naked Gun 2 1/2: The Smell of Fear
p956
aVThe Naked Gun: From the Files of Police Squad!
p957
aVThe Naked Gun 33 1/3: The Final Insult
p958
asVNight at the Museum
p959
(lp960
VNight at the Museum
p961
aVNight at the Museum: Battle of the Smithsonian
p962
aVNight at the Museum: Secret of the Tomb
p963
asVBatman
p964
(lp965
VThe Dark Knight
p966
aVThe Dark Knight Rises
p967
aVBatman
p968
aVBatman Begins
p969
aVBatman Forever
p970
aVBatman Returns
p971
aVBatman and Robin
p972
aVBatman: Mask of the Phantasm
p973
asVEvil Dead
p974
(lp975
VEvil Dead (2013)
p976
aVArmy of Darkness
p977
aVEvil Dead 2
p978
aVThe Evil Dead
p979
as.