(dp0
VVampires Suck
p1
(lp2
VComedy
p3
asVThe Great Flood
p4
(lp5
VDocumentary
p6
aVHistory
p7
aVMusic
p8
asVLife of Pi
p9
(lp10
VAction
p11
aVAdventure
p12
aVDrama
p13
aVFantasy
p14
asVThe Crazies
p15
(lp16
VHorror
p17
aVMystery
p18
aVThriller
p19
asVCinco De Mayo: La Batalla
p20
(lp21
VDrama
p22
aVHistory
p23
aVWar
p24
asVUnderdogs
p25
(lp26
VAction
p27
aVFamily
p28
asVGrace Unplugged
p29
(lp30
VDrama
p31
aVMusic
p32
asVBegin Again
p33
(lp34
VDrama
p35
aVMusic
p36
asVBatkid Begins
p37
(lp38
VDocumentary
p39
aVBiography
p40
aVFamily
p41
asVNo Good Deed (2014)
p42
(lp43
VCrime
p44
aVThriller
p45
asVAn Honest Liar
p46
(lp47
VDocumentary
p48
aVBiography
p49
aVComedy
p50
aVHistory
p51
asVLockout
p52
(lp53
VAction
p54
aVDrama
p55
aVSci-Fi
p56
aVThriller
p57
asVTitanic 3D
p58
S'N/A'
p59
sVSingin' In the Rain (2012 re-release)
p60
g59
sVThe Muppets
p61
(lp62
VComedy
p63
aVFamily
p64
aVMusical
p65
asVTonight You're Mine
p66
(lp67
VComedy
p68
aVDrama
p69
aVMusic
p70
asVWhile We're Young
p71
(lp72
VComedy
p73
aVDrama
p74
asVThe Graduate: 45th Anniversary Reunion
p75
g59
sVMake Your Move
p76
(lp77
VMusical
p78
asVPaul
p79
(lp80
VAdventure
p81
aVComedy
p82
aVSci-Fi
p83
asVLee Daniels' The Butler
p84
(lp85
VBiography
p86
aVDrama
p87
asVMunger Road
p88
(lp89
VHorror
p90
aVMystery
p91
aVThriller
p92
asVJack Reacher
p93
(lp94
VAction
p95
aVCrime
p96
aVMystery
p97
aVThriller
p98
asVThe Virginity Hit
p99
(lp100
VComedy
p101
asVMr. Pip
p102
(lp103
VDrama
p104
aVWar
p105
asVDown the Shore
p106
(lp107
VDrama
p108
aVRomance
p109
aVThriller
p110
asVJinn
p111
(lp112
VThriller
p113
asVKon-Tiki
p114
(lp115
VAdventure
p116
aVHistory
p117
asVMiddle Men
p118
(lp119
VComedy
p120
aVCrime
p121
aVDrama
p122
asVThe Tourist
p123
(lp124
VAction
p125
aVRomance
p126
aVThriller
p127
asVLetters to God
p128
(lp129
VDrama
p130
aVFamily
p131
asVThe Amazing Spider-Man
p132
(lp133
VAction
p134
aVAdventure
p135
aVFantasy
p136
asVBrooklyn's Finest
p137
(lp138
VCrime
p139
aVDrama
p140
aVThriller
p141
asVHamari Adhuri Kahani
p142
(lp143
VDrama
p144
asVElsa & Fred (2014)
p145
(lp146
VComedy
p147
aVDrama
p148
aVRomance
p149
asVAttack the Block
p150
(lp151
VAction
p152
aVComedy
p153
aVSci-Fi
p154
aVThriller
p155
asVDanny Collins
p156
(lp157
VComedy
p158
aVDrama
p159
aVMusic
p160
asVMan of Steel
p161
(lp162
VAction
p163
aVAdventure
p164
aVFantasy
p165
aVSci-Fi
p166
asVLegion (2010)
p167
(lp168
VAction
p169
aVFantasy
p170
aVHorror
p171
asVReal Steel
p172
(lp173
VAction
p174
aVDrama
p175
aVSci-Fi
p176
aVSport
p177
asVAddicted
p178
(lp179
VDrama
p180
aVThriller
p181
asVI'm In Love With a Church Girl
p182
(lp183
VDrama
p184
aVRomance
p185
asVLittle Fockers
p186
(lp187
VComedy
p188
aVRomance
p189
asVCaptain America: The First Avenger
p190
(lp191
VAction
p192
aVAdventure
p193
aVSci-Fi
p194
asVGimme Shelter
p195
(lp196
VDrama
p197
asVAlexander and the Terrible, Horrible, No Good, Very Bad Day
p198
(lp199
VComedy
p200
aVFamily
p201
asVThe Wizard of Oz (3D/IMAX)
p202
S'N/A'
p203
sVSunshine Superman
p204
(lp205
VDocumentary
p206
aVBiography
p207
aVSport
p208
asVYou're Next
p209
(lp210
VHorror
p211
aVThriller
p212
asVLong Shot: The Kevin Laue Story (2013)
p213
(lp214
VDocumentary
p215
aVDrama
p216
asVYou're Not You
p217
(lp218
VDrama
p219
asVThis is the End
p220
(lp221
VComedy
p222
aVFantasy
p223
asVEpic
p224
(lp225
VAnimation
p226
aVAdventure
p227
aVFamily
p228
aVFantasy
p229
asVPompeii
p230
(lp231
VAction
p232
aVAdventure
p233
aVDrama
p234
aVHistory
p235
aVRomance
p236
asVWhere Hope Grows
p237
(lp238
VDrama
p239
asVOne Direction: This is Us
p240
(lp241
VDocumentary
p242
aVMusic
p243
asVKillers
p244
(lp245
VAction
p246
aVComedy
p247
aVRomance
p248
aVThriller
p249
asVSimon and the Oaks
p250
(lp251
VDrama
p252
asVReaching for the Moon
p253
(lp254
VBiography
p255
aVDrama
p256
aVRomance
p257
asVGreenberg
p258
(lp259
VComedy
p260
aVDrama
p261
aVRomance
p262
asVMy Old Lady
p263
(lp264
VComedy
p265
aVDrama
p266
aVRomance
p267
asVOculus
p268
(lp269
VHorror
p270
asVThat Awkward Moment
p271
(lp272
VComedy
p273
aVRomance
p274
asVA.C.O.D.
p275
(lp276
VComedy
p277
asVThe Last Godfather
p278
(lp279
VComedy
p280
asVBlood Ties (2014)
p281
(lp282
VDocumentary
p283
aVCrime
p284
asVThe Heat
p285
(lp286
VAction
p287
aVComedy
p288
aVCrime
p289
asVThe Campaign
p290
(lp291
VComedy
p292
asVThe Road (2012)
p293
(lp294
VDocumentary
p295
aVShort
p296
aVAdventure
p297
aVDrama
p298
aVNews
p299
asVTwice Born
p300
(lp301
VDrama
p302
aVRomance
p303
aVWar
p304
asVHow to Train Your Dragon 2
p305
(lp306
VAnimation
p307
aVAction
p308
aVAdventure
p309
aVComedy
p310
aVFamily
p311
aVFantasy
p312
asVIron Man 2
p313
(lp314
VAction
p315
aVAdventure
p316
aVSci-Fi
p317
asVIron Man 3
p318
(lp319
VAction
p320
aVAdventure
p321
aVSci-Fi
p322
asVToy Story 3
p323
(lp324
VAnimation
p325
aVAdventure
p326
aVComedy
p327
aVFamily
p328
aVFantasy
p329
asVHaute Cuisine
p330
(lp331
VBiography
p332
aVComedy
p333
asVLa Soga
p334
(lp335
VCrime
p336
aVDrama
p337
aVThriller
p338
asVTyler Perry's Madea's Big Happy Family
p339
(lp340
VTalk-Show
p341
asVRamona and Beezus
p342
(lp343
VAdventure
p344
aVComedy
p345
aVFamily
p346
aVFantasy
p347
asVThe LEGO Movie
p348
(lp349
VAnimation
p350
aVAdventure
p351
aVComedy
p352
aVFamily
p353
aVFantasy
p354
asVThe Adventurer: The Curse of the Midas Box
p355
(lp356
VAdventure
p357
aVFamily
p358
aVFantasy
p359
asVTeenage Mutant Ninja Turtles (2014)
p360
(lp361
VAction
p362
aVAdventure
p363
aVComedy
p364
aVFantasy
p365
aVSci-Fi
p366
asVEarth to Echo
p367
(lp368
VAdventure
p369
aVFamily
p370
aVSci-Fi
p371
asVGod's Not Dead
p372
(lp373
VDrama
p374
asVI, Frankenstein
p375
(lp376
VAction
p377
aVFantasy
p378
aVSci-Fi
p379
asVSex and the City 2
p380
(lp381
VComedy
p382
aVDrama
p383
aVRomance
p384
asVThe Twilight Saga: Eclipse
p385
(lp386
VAdventure
p387
aVDrama
p388
aVFantasy
p389
aVRomance
p390
asVWe're the Millers
p391
(lp392
VAction
p393
aVAdventure
p394
aVComedy
p395
aVCrime
p396
asVTangerines
p397
(lp398
VDrama
p399
aVWar
p400
asVJupiter Ascending
p401
(lp402
VAction
p403
aVAdventure
p404
aVSci-Fi
p405
asVEnough Said
p406
(lp407
VComedy
p408
aVDrama
p409
aVRomance
p410
asVWinnie Mandela
p411
(lp412
VBiography
p413
aVDrama
p414
aVHistory
p415
asVSarah Palin - You Betcha!
p416
(lp417
VDocumentary
p418
asVRise of the Planet of the Apes
p419
(lp420
VAction
p421
aVDrama
p422
aVSci-Fi
p423
aVThriller
p424
asVGuzaarish
p425
(lp426
VComedy
p427
aVDrama
p428
aVRomance
p429
asVRush (2013)
p430
(lp431
VAction
p432
aVBiography
p433
aVDrama
p434
aVSport
p435
asVBreathless (2010 re-issue)
p436
g59
sVZombeavers
p437
(lp438
VComedy
p439
aVHorror
p440
asVScream 4
p441
(lp442
VHorror
p443
aVMystery
p444
asVTomorrow When the War Began
p445
(lp446
VAction
p447
aVAdventure
p448
aVDrama
p449
aVWar
p450
asVAnimals (2015)
p451
(lp452
VDrama
p453
asVSafety Not Guaranteed
p454
(lp455
VComedy
p456
aVDrama
p457
aVRomance
p458
asVStraw Dogs (2011)
p459
(lp460
VHorror
p461
aVThriller
p462
asVChronicle (2012)
p463
(lp464
VDrama
p465
aVSci-Fi
p466
aVThriller
p467
asVThe Words
p468
(lp469
VDrama
p470
aVMystery
p471
aVRomance
p472
asVTo Die is Hard
p473
(lp474
VAction
p475
aVComedy
p476
asVMaps to the Stars
p477
(lp478
VComedy
p479
aVDrama
p480
asVGerontophilia
p481
(lp482
VComedy
p483
aVRomance
p484
asVMartha Marcy May Marlene
p485
(lp486
VDrama
p487
aVThriller
p488
asVLost River
p489
(lp490
VDrama
p491
aVFantasy
p492
aVMystery
p493
aVThriller
p494
asVHit and Run
p495
(lp496
VAction
p497
aVComedy
p498
aVRomance
p499
asVI Origins
p500
(lp501
VDrama
p502
asVA Haunted House
p503
(lp504
VComedy
p505
aVHorror
p506
asVSaint Misbehavin': The Wavy Gravy Movie
p507
(lp508
VDocumentary
p509
asVShame
p510
(lp511
VDrama
p512
asVHome Run
p513
(lp514
VDrama
p515
aVSport
p516
asVWelcome to Me
p517
(lp518
VComedy
p519
aVDrama
p520
asVThe Polar Express (IMAX re-issue 2010)
p521
g59
sVThe Wicker Man - Final Cut
p522
g203
sVAatsinki: The Story of Arctic Cowboys
p523
(lp524
VDocumentary
p525
aVBiography
p526
aVWestern
p527
asVParanoia
p528
(lp529
VDrama
p530
aVMystery
p531
aVThriller
p532
asVThe DUFF
p533
(lp534
VComedy
p535
asVStar Wars: Episode I - The Phantom Menace (in 3D)
p536
(lp537
VAction
p538
aVAdventure
p539
aVFantasy
p540
aVSci-Fi
p541
asVStalingrad (2014)
p542
(lp543
VShort
p544
asVJab Tak Hai Jaan
p545
(lp546
VDrama
p547
aVRomance
p548
asVBesharam
p549
(lp550
VComedy
p551
aVRomance
p552
asVThe Back-Up Plan
p553
(lp554
VComedy
p555
aVRomance
p556
asVGrandmaster
p557
(lp558
VAction
p559
aVBiography
p560
aVDrama
p561
asVMcFarland, USA
p562
(lp563
VDrama
p564
aVSport
p565
asVBefore I Go To Sleep
p566
(lp567
VDrama
p568
aVMystery
p569
aVRomance
p570
aVThriller
p571
asVNight at the Museum: Secret of the Tomb
p572
(lp573
VAdventure
p574
aVComedy
p575
aVFamily
p576
aVFantasy
p577
asVThe Lord of the Rings: The Fellowship of the Ring (2011 re-release)
p578
g59
sVThe Last Exorcism Part II
p579
(lp580
VDrama
p581
aVHorror
p582
aVThriller
p583
asVHot Pursuit
p584
(lp585
VAction
p586
aVComedy
p587
aVCrime
p588
asVEvery Day
p589
(lp590
VComedy
p591
aVDrama
p592
aVRomance
p593
asVPlanes
p594
(lp595
VAnimation
p596
aVAdventure
p597
aVComedy
p598
aVFamily
p599
asV22 Jump Street
p600
(lp601
VAction
p602
aVComedy
p603
aVCrime
p604
asVIdentity Thief
p605
(lp606
VComedy
p607
aVCrime
p608
asVParticle Fever
p609
(lp610
VDocumentary
p611
asVUnder the Boardwalk: The Monopoly Story
p612
(lp613
VDocumentary
p614
aVHistory
p615
aVSport
p616
asVCity Island
p617
(lp618
VComedy
p619
aVDrama
p620
asVRise of the Guardians
p621
(lp622
VAnimation
p623
aVAdventure
p624
aVFamily
p625
aVFantasy
p626
asVDraft Day
p627
(lp628
VDrama
p629
aVSport
p630
asVThe Mortal Instruments: City of Bones
p631
(lp632
VAction
p633
aVAdventure
p634
aVFantasy
p635
aVMystery
p636
aVRomance
p637
asVGhost Team One
p638
(lp639
VComedy
p640
aVHorror
p641
asVVamps
p642
(lp643
VComedy
p644
aVHorror
p645
aVRomance
p646
asVDetective Byomkesh Bakshy
p647
(lp648
VMystery
p649
aVThriller
p650
asVSilver Linings Playbook
p651
(lp652
VComedy
p653
aVDrama
p654
aVRomance
p655
asVRuby Sparks
p656
(lp657
VComedy
p658
aVDrama
p659
aVFantasy
p660
aVRomance
p661
asVA Most Wanted Man
p662
(lp663
VCrime
p664
aVDrama
p665
aVThriller
p666
asVSide Effects (2013)
p667
(lp668
VCrime
p669
aVDrama
p670
aVThriller
p671
asVNo One Lives
p672
(lp673
VHorror
p674
aVThriller
p675
asVBrave
p676
(lp677
VAnimation
p678
aVAdventure
p679
aVComedy
p680
aVFamily
p681
aVFantasy
p682
asVNo One Killed Jessica
p683
(lp684
VCrime
p685
aVDrama
p686
aVThriller
p687
asVJohn Carter
p688
(lp689
VAction
p690
aVAdventure
p691
aVFantasy
p692
aVSci-Fi
p693
asVThe Passionate Thief (2014 re-release)
p694
g203
sVMission: Impossible - Ghost Protocol
p695
(lp696
VAction
p697
aVAdventure
p698
aVThriller
p699
asVBurlesque
p700
(lp701
VDrama
p702
aVMusic
p703
aVRomance
p704
asVExpedition to the End of the World
p705
(lp706
VDocumentary
p707
aVAction
p708
aVAdventure
p709
aVSport
p710
asVAmerican Reunion
p711
(lp712
VComedy
p713
asVBrick Mansions
p714
(lp715
VAction
p716
aVCrime
p717
aVDrama
p718
aVThriller
p719
asVJoe (2014)
p720
(lp721
VDocumentary
p722
asVOne For the Money
p723
(lp724
VAction
p725
aVComedy
p726
aVCrime
p727
aVRomance
p728
aVThriller
p729
asVBodyguard
p730
(lp731
VAction
p732
aVDrama
p733
aVMusic
p734
aVRomance
p735
aVThriller
p736
asVGloria (2014)
p737
(lp738
VBiography
p739
aVDrama
p740
aVMusic
p741
asVNow, Forager
p742
(lp743
VDrama
p744
asVDo You Believe?
p745
(lp746
VDrama
p747
asVJustice Is Mind
p748
(lp749
VCrime
p750
aVDrama
p751
aVMystery
p752
aVSci-Fi
p753
asVPiku
p754
(lp755
VComedy
p756
aVDrama
p757
asVIt Follows
p758
(lp759
VHorror
p760
aVMystery
p761
aVThriller
p762
asVFor Greater Glory
p763
(lp764
VDrama
p765
aVHistory
p766
aVWar
p767
asVFinding Fanny
p768
(lp769
VComedy
p770
aVDrama
p771
aVRomance
p772
asVThe Institute
p773
(lp774
VDocumentary
p775
aVCrime
p776
aVMystery
p777
aVSci-Fi
p778
asVSaving Private Perez
p779
(lp780
VAdventure
p781
aVComedy
p782
aVWestern
p783
asVWrath of the Titans
p784
(lp785
VAction
p786
aVAdventure
p787
aVFantasy
p788
asVWhite House Down
p789
(lp790
VAction
p791
aVDrama
p792
aVThriller
p793
asVCopperhead
p794
(lp795
VDrama
p796
asVSolitary Man
p797
(lp798
VComedy
p799
aVDrama
p800
aVRomance
p801
asVUnbroken
p802
(lp803
VBiography
p804
aVDrama
p805
aVSport
p806
aVWar
p807
asV21 Jump Street
p808
(lp809
VAction
p810
aVComedy
p811
aVCrime
p812
asVFlight
p813
(lp814
VDrama
p815
aVThriller
p816
asVViolet Tendencies
p817
(lp818
VComedy
p819
aVDrama
p820
aVRomance
p821
asVThe Love Punch
p822
(lp823
VComedy
p824
asVCop Out
p825
(lp826
VAction
p827
aVComedy
p828
aVCrime
p829
asVDream House
p830
(lp831
VDrama
p832
aVMystery
p833
aVThriller
p834
asVThe Identical
p835
(lp836
VDrama
p837
aVMusic
p838
asVMissionary
p839
(lp840
VDrama
p841
aVThriller
p842
asVThe Liberator
p843
(lp844
VBiography
p845
aVDrama
p846
aVHistory
p847
asVTransformers: Dark of the Moon
p848
(lp849
VAction
p850
aVAdventure
p851
aVSci-Fi
p852
asVFrozen
p853
(lp854
VAnimation
p855
aVAdventure
p856
aVComedy
p857
aVFamily
p858
aVFantasy
p859
aVMusical
p860
asVThe Woman in Black 2: Angel of Death
p861
(lp862
VDrama
p863
aVHorror
p864
aVThriller
p865
asVSpecial Forces
p866
(lp867
VAction
p868
aVDrama
p869
aVWar
p870
asVGett: The Trial of Viviane Amsalem
p871
(lp872
VDrama
p873
asVThe Gunman
p874
(lp875
VAction
p876
aVCrime
p877
aVDrama
p878
aVMystery
p879
aVThriller
p880
asVA Million Ways to Die in the West
p881
(lp882
VComedy
p883
aVWestern
p884
asVBernie
p885
(lp886
VComedy
p887
aVCrime
p888
aVDrama
p889
asVTwelve
p890
(lp891
VAction
p892
aVCrime
p893
aVDrama
p894
aVThriller
p895
asVMax (2015)
p896
(lp897
VAdventure
p898
aVFamily
p899
asVBullet to the Head
p900
(lp901
VAction
p902
aVCrime
p903
aVThriller
p904
asVTranscendence
p905
(lp906
VDrama
p907
aVMystery
p908
aVRomance
p909
aVSci-Fi
p910
aVThriller
p911
asVIn Time
p912
(lp913
VAction
p914
aVSci-Fi
p915
aVThriller
p916
asVDjango (2012 re-release)
p917
g59
sVSnow White and the Huntsman
p918
(lp919
VAction
p920
aVAdventure
p921
aVDrama
p922
aVFantasy
p923
asVLife of Crime
p924
(lp925
VComedy
p926
aVCrime
p927
asVDrive Angry
p928
(lp929
VAction
p930
aVComedy
p931
aVFantasy
p932
aVThriller
p933
asVAnna
p934
(lp935
VDrama
p936
aVThriller
p937
asVDelhi Belly
p938
(lp939
VComedy
p940
aVCrime
p941
aVDrama
p942
asVBarefoot
p943
(lp944
VComedy
p945
aVDrama
p946
aVRomance
p947
asVThe King's Speech (PG-13)
p948
(lp949
VBiography
p950
aVDrama
p951
aVHistory
p952
asVTo Save a Life
p953
(lp954
VDrama
p955
asVTakers
p956
(lp957
VAction
p958
aVCrime
p959
aVThriller
p960
asVSnitch
p961
(lp962
VAction
p963
aVDrama
p964
aVThriller
p965
asVImmigration Tango
p966
(lp967
VComedy
p968
asVWhen in Rome
p969
(lp970
VComedy
p971
aVRomance
p972
asVLinsanity
p973
(lp974
VDocumentary
p975
aVBiography
p976
aVSport
p977
asVArt of Submission
p978
(lp979
VAction
p980
aVDrama
p981
asVAloha
p982
(lp983
VComedy
p984
aVDrama
p985
aVRomance
p986
asVChasing Mavericks
p987
(lp988
VBiography
p989
aVDrama
p990
aVSport
p991
asVWild Target
p992
(lp993
VAction
p994
aVComedy
p995
aVCrime
p996
asVQuartet
p997
(lp998
VComedy
p999
aVDrama
p1000
asVThe Sitter
p1001
(lp1002
VComedy
p1003
asVRemnants
p1004
(lp1005
VAction
p1006
aVThriller
p1007
asVRio
p1008
(lp1009
VAnimation
p1010
aVAdventure
p1011
aVComedy
p1012
aVFamily
p1013
aVMusical
p1014
asVThe Word
p1015
(lp1016
VDrama
p1017
aVFantasy
p1018
asVShrek Forever After
p1019
(lp1020
VAnimation
p1021
aVAdventure
p1022
aVComedy
p1023
aVFamily
p1024
aVFantasy
p1025
asVBelle
p1026
(lp1027
VDrama
p1028
aVRomance
p1029
asVMas Negro Que La Noche
p1030
(lp1031
VHorror
p1032
asVThe Immortalists
p1033
(lp1034
VDocumentary
p1035
aVDrama
p1036
asVGrown Ups
p1037
(lp1038
VComedy
p1039
asVGeneral Education
p1040
(lp1041
VComedy
p1042
asVGhanchakkar
p1043
(lp1044
VComedy
p1045
aVCrime
p1046
aVThriller
p1047
asVMade in Cleveland
p1048
(lp1049
VComedy
p1050
asVI Am Number Four
p1051
(lp1052
VAction
p1053
aVAdventure
p1054
aVSci-Fi
p1055
aVThriller
p1056
asVRoar!
p1057
(lp1058
VShort
p1059
aVComedy
p1060
asVAftermath (2014)
p1061
(lp1062
VShort
p1063
aVDrama
p1064
asVWoman Thou Art Loosed!: On the 7th Day
p1065
(lp1066
VDrama
p1067
asVPremium Rush
p1068
(lp1069
VAction
p1070
aVCrime
p1071
aVThriller
p1072
asVSound of My Voice
p1073
(lp1074
VDrama
p1075
aVMystery
p1076
aVSci-Fi
p1077
aVThriller
p1078
asVOblivion
p1079
(lp1080
VAction
p1081
aVAdventure
p1082
aVMystery
p1083
aVSci-Fi
p1084
asVShe's Out of My League
p1085
(lp1086
VComedy
p1087
aVRomance
p1088
asVOut of the Furnace
p1089
(lp1090
VCrime
p1091
aVDrama
p1092
aVThriller
p1093
asVHiroshima Mon Amour (2014 re-release)
p1094
g203
sVTalaash
p1095
(lp1096
VCrime
p1097
aVDrama
p1098
aVMystery
p1099
aVThriller
p1100
asVFinal: The Rapture
p1101
(lp1102
VThriller
p1103
asVWreck-It Ralph
p1104
(lp1105
VAnimation
p1106
aVAdventure
p1107
aVComedy
p1108
aVFamily
p1109
asVCome Back to Me
p1110
(lp1111
VHorror
p1112
aVMystery
p1113
aVThriller
p1114
asVOn the Bowery (re-release)
p1115
g59
sVThe Tempest
p1116
(lp1117
VComedy
p1118
aVDrama
p1119
aVFantasy
p1120
aVRomance
p1121
asVKick-Ass
p1122
(lp1123
VAction
p1124
aVComedy
p1125
asVTurtle: The Incredible Journey
p1126
(lp1127
VDocumentary
p1128
asVThe Dry Land
p1129
(lp1130
VDrama
p1131
asVMagic Mike XXL
p1132
(lp1133
VComedy
p1134
aVDrama
p1135
aVMusic
p1136
asVTales of the Night
p1137
(lp1138
VAnimation
p1139
aVFantasy
p1140
asVSkyfall
p1141
(lp1142
VAction
p1143
aVAdventure
p1144
aVThriller
p1145
asVSafe (2012)
p1146
(lp1147
VAction
p1148
aVCrime
p1149
aVThriller
p1150
asVBeasts of the Southern Wild
p1151
(lp1152
VDrama
p1153
aVFantasy
p1154
asVHouse at the End of The Street
p1155
(lp1156
VHorror
p1157
aVMystery
p1158
aVThriller
p1159
asVForrest Gump (IMAX)
p1160
(lp1161
VComedy
p1162
aVGame-Show
p1163
aVReality-TV
p1164
aVSport
p1165
asVSarah's Key
p1166
(lp1167
VDrama
p1168
aVWar
p1169
asVJustin Bieber: Never Say Never
p1170
(lp1171
VDocumentary
p1172
aVMusic
p1173
asVSalmon Fishing in the Yemen
p1174
(lp1175
VComedy
p1176
aVDrama
p1177
aVRomance
p1178
asVThe Mechanic
p1179
(lp1180
VAction
p1181
aVCrime
p1182
aVThriller
p1183
asVSilent Hill: Revelation 3D
p1184
(lp1185
VHorror
p1186
aVMystery
p1187
aVThriller
p1188
asVAs Above/So Below
p1189
(lp1190
VAdventure
p1191
aVHorror
p1192
aVMystery
p1193
aVThriller
p1194
asVLola Versus
p1195
(lp1196
VComedy
p1197
asVJourney 2: The Mysterious Island
p1198
(lp1199
VAction
p1200
aVAdventure
p1201
aVComedy
p1202
aVFamily
p1203
aVFantasy
p1204
aVSci-Fi
p1205
asVSpy Kids: All the Time in the World
p1206
(lp1207
VAction
p1208
aVAdventure
p1209
aVComedy
p1210
aVFamily
p1211
aVSci-Fi
p1212
asVRedemption Road
p1213
(lp1214
VDrama
p1215
asVTomorrowland
p1216
(lp1217
VAction
p1218
aVAdventure
p1219
aVFamily
p1220
aVMystery
p1221
aVSci-Fi
p1222
asVTop Gun 3D
p1223
(lp1224
VAction
p1225
aVDrama
p1226
aVRomance
p1227
asVOn the Other Side of the Tracks
p1228
(lp1229
VAction
p1230
aVComedy
p1231
aVCrime
p1232
asVHoodwinked Too! Hood vs. Evil
p1233
(lp1234
VAnimation
p1235
aVComedy
p1236
aVFamily
p1237
asVThe Imitation Game
p1238
(lp1239
VBiography
p1240
aVDrama
p1241
aVThriller
p1242
aVWar
p1243
asVGirl in Progress
p1244
(lp1245
VComedy
p1246
aVDrama
p1247
asVUnfriended
p1248
(lp1249
VHorror
p1250
aVThriller
p1251
asVGreen Lantern
p1252
(lp1253
VAction
p1254
aVAdventure
p1255
aVRomance
p1256
aVSci-Fi
p1257
aVThriller
p1258
asVSong One
p1259
(lp1260
VDrama
p1261
aVMusic
p1262
asVThe Concert
p1263
(lp1264
VComedy
p1265
aVDrama
p1266
aVMusic
p1267
asVDeli Man
p1268
(lp1269
VDocumentary
p1270
asVEk Main Aur Ekk Tu
p1271
(lp1272
VComedy
p1273
aVDrama
p1274
aVRomance
p1275
asVThe Adjustment Bureau
p1276
(lp1277
VRomance
p1278
aVSci-Fi
p1279
aVThriller
p1280
asVThe Good Lie
p1281
(lp1282
VDrama
p1283
asVBlue Jasmine
p1284
(lp1285
VDrama
p1286
asVSkateland
p1287
(lp1288
VDrama
p1289
asVThe Perks of Being a Wallflower
p1290
(lp1291
VDrama
p1292
aVRomance
p1293
asVYouth in Revolt
p1294
(lp1295
VComedy
p1296
aVDrama
p1297
aVRomance
p1298
asVThe Big Picture (2012)
p1299
(lp1300
VDocumentary
p1301
asVGrudge Match
p1302
(lp1303
VComedy
p1304
aVSport
p1305
asVAfflicted (2014)
p1306
(lp1307
VTalk-Show
p1308
asVWhen Marnie Was There
p1309
(lp1310
VAnimation
p1311
aVDrama
p1312
aVFamily
p1313
aVMystery
p1314
asVSkyline
p1315
(lp1316
VAction
p1317
aVSci-Fi
p1318
aVThriller
p1319
asVCook County
p1320
(lp1321
VDrama
p1322
asVDelivery Man
p1323
(lp1324
VComedy
p1325
aVDrama
p1326
asVTwilight/New Moon Combo (one-night-only)
p1327
g59
sVThe Raven
p1328
(lp1329
VCrime
p1330
aVMystery
p1331
aVThriller
p1332
asVKai Po Che
p1333
(lp1334
VDrama
p1335
aVSport
p1336
asVPercy Jackson: Sea of Monsters
p1337
(lp1338
VAdventure
p1339
aVFamily
p1340
aVFantasy
p1341
asVVidal Sassoon: The Movie
p1342
(lp1343
VDocumentary
p1344
asVThe One I Love
p1345
(lp1346
VComedy
p1347
aVDrama
p1348
aVRomance
p1349
asVExodus: Gods and Kings
p1350
(lp1351
VAction
p1352
aVAdventure
p1353
aVDrama
p1354
asVNext Goal Wins
p1355
(lp1356
VDocumentary
p1357
aVSport
p1358
asVDouble Dhamaal
p1359
(lp1360
VComedy
p1361
aVCrime
p1362
aVDrama
p1363
asVBeautiful Darling
p1364
(lp1365
VDocumentary
p1366
asVThe Hundred-Foot Journey
p1367
(lp1368
VComedy
p1369
aVDrama
p1370
asVKnight & Day
p1371
(lp1372
VAction
p1373
aVComedy
p1374
aVRomance
p1375
asVFruitvale Station
p1376
(lp1377
VBiography
p1378
aVDrama
p1379
aVRomance
p1380
asVBeetle Queen Conquers Tokyo
p1381
(lp1382
VDocumentary
p1383
asVMorning
p1384
(lp1385
VDrama
p1386
asVWhite God
p1387
(lp1388
VDrama
p1389
asVThe Lincoln Lawyer
p1390
(lp1391
VCrime
p1392
aVDrama
p1393
aVThriller
p1394
asVParanormal Activity 4
p1395
(lp1396
VHorror
p1397
asVStarbuck (U.S. only)
p1398
g203
sVParanormal Activity 2
p1399
(lp1400
VHorror
p1401
asVCharlie St. Cloud
p1402
(lp1403
VDrama
p1404
aVFantasy
p1405
aVRomance
p1406
asVEscape Fire
p1407
(lp1408
VShort
p1409
aVDrama
p1410
asVThe Girl with the Dragon Tattoo (2011)
p1411
(lp1412
VCrime
p1413
aVDrama
p1414
aVMystery
p1415
aVThriller
p1416
asVFright Night (2011)
p1417
(lp1418
VComedy
p1419
aVHorror
p1420
asVBlue Ruin
p1421
(lp1422
VCrime
p1423
aVDrama
p1424
aVThriller
p1425
asVDredd
p1426
(lp1427
VAction
p1428
aVSci-Fi
p1429
asVMe and Earl and the Dying Girl
p1430
(lp1431
VComedy
p1432
aVDrama
p1433
asVJake Squared
p1434
(lp1435
VComedy
p1436
aVDrama
p1437
asVCatfish
p1438
(lp1439
VDocumentary
p1440
asVTyler Perry's The Single Moms Club
p1441
(lp1442
VComedy
p1443
aVTalk-Show
p1444
asVDetention of the Dead
p1445
(lp1446
VComedy
p1447
aVHorror
p1448
asVLove and Other Drugs
p1449
(lp1450
VComedy
p1451
aVDrama
p1452
aVRomance
p1453
asVGlee The 3D Concert Movie
p1454
(lp1455
VDocumentary
p1456
aVMusic
p1457
asVAnnabelle
p1458
(lp1459
VHorror
p1460
aVMystery
p1461
asVPulling Strings
p1462
(lp1463
VComedy
p1464
aVRomance
p1465
asVMacGruber
p1466
(lp1467
VAction
p1468
aVComedy
p1469
aVRomance
p1470
asVAtlas Shrugged Part III: Who Is John Galt?
p1471
(lp1472
VDrama
p1473
aVMystery
p1474
aVSci-Fi
p1475
asVThe Hunger Games: Catching Fire
p1476
(lp1477
VAction
p1478
aVAdventure
p1479
aVSci-Fi
p1480
asVABCD (Any Body Can Dance)
p1481
(lp1482
VMusic
p1483
aVWestern
p1484
asVGoing the Distance
p1485
(lp1486
VComedy
p1487
aVRomance
p1488
asVFreetown
p1489
(lp1490
VAction
p1491
aVDrama
p1492
aVThriller
p1493
asVRangrezz
p1494
(lp1495
VAction
p1496
asVAnd So It Goes
p1497
(lp1498
VComedy
p1499
aVDrama
p1500
aVRomance
p1501
asVTaken 2
p1502
(lp1503
VAction
p1504
aVThriller
p1505
asVTaken 3
p1506
(lp1507
VAction
p1508
aVThriller
p1509
asVEmperor
p1510
(lp1511
VDrama
p1512
aVHistory
p1513
asVDirty Girl
p1514
(lp1515
VComedy
p1516
aVDrama
p1517
asVThe Fighter
p1518
(lp1519
VBiography
p1520
aVDrama
p1521
aVSport
p1522
asVCuban Fury
p1523
(lp1524
VComedy
p1525
asVTwo Night Stand
p1526
(lp1527
VComedy
p1528
aVRomance
p1529
asVAbout Time
p1530
(lp1531
VDrama
p1532
aVFantasy
p1533
aVRomance
p1534
asVThe Longest Ride
p1535
(lp1536
VDrama
p1537
aVRomance
p1538
asVThe Counselor
p1539
(lp1540
VCrime
p1541
aVDrama
p1542
aVThriller
p1543
asVLotus Eaters
p1544
(lp1545
VDrama
p1546
asVEdge of Tomorrow
p1547
(lp1548
VAction
p1549
aVAdventure
p1550
aVMystery
p1551
aVSci-Fi
p1552
asVTerminator: Genisys
p1553
(lp1554
VAction
p1555
aVAdventure
p1556
aVSci-Fi
p1557
aVThriller
p1558
asVCloud Atlas
p1559
(lp1560
VDrama
p1561
aVSci-Fi
p1562
asVLost and Found in Armenia
p1563
(lp1564
VComedy
p1565
asVHyde Park on Hudson
p1566
(lp1567
VBiography
p1568
aVComedy
p1569
aVDrama
p1570
aVHistory
p1571
asVThe Immigrant
p1572
(lp1573
VDrama
p1574
aVRomance
p1575
asVSafe House
p1576
(lp1577
VAction
p1578
aVCrime
p1579
aVMystery
p1580
aVThriller
p1581
asVThe Sorcerer's Apprentice
p1582
(lp1583
VAction
p1584
aVAdventure
p1585
aVComedy
p1586
aVDrama
p1587
aVFantasy
p1588
asVDeath at a Funeral (2010)
p1589
(lp1590
VComedy
p1591
asVHercules (2014)
p1592
(lp1593
VAction
p1594
aVAdventure
p1595
asVSex Tape
p1596
(lp1597
VComedy
p1598
aVRomance
p1599
asVHasee Toh Phasee
p1600
(lp1601
VComedy
p1602
aVRomance
p1603
asVThe Purge
p1604
(lp1605
VHorror
p1606
aVSci-Fi
p1607
aVThriller
p1608
asVForbidden Games (1952)
p1609
(lp1610
VDrama
p1611
aVWar
p1612
asVSinister
p1613
(lp1614
VHorror
p1615
aVMystery
p1616
asVHall Pass
p1617
(lp1618
VComedy
p1619
aVRomance
p1620
asVKumiko, The Treasure Hunter
p1621
(lp1622
VDrama
p1623
asVCrazy, Stupid, Love.
p1624
(lp1625
VComedy
p1626
aVDrama
p1627
aVRomance
p1628
asVW.E.
p1629
(lp1630
VDrama
p1631
aVHistory
p1632
aVRomance
p1633
asVEscape Plan
p1634
(lp1635
VAction
p1636
aVMystery
p1637
aVThriller
p1638
asVRoboCop (2014)
p1639
(lp1640
VAction
p1641
aVSci-Fi
p1642
aVThriller
p1643
asVThe Topp Twins: Untouchable Girls
p1644
(lp1645
VDocumentary
p1646
aVComedy
p1647
aVMusic
p1648
asVInherent Vice
p1649
(lp1650
VComedy
p1651
aVCrime
p1652
aVDrama
p1653
aVMystery
p1654
aVRomance
p1655
asVSparkle (2012)
p1656
(lp1657
VDrama
p1658
aVMusic
p1659
asVOldboy (2013)
p1660
(lp1661
VAction
p1662
aVDrama
p1663
aVMystery
p1664
aVThriller
p1665
asVLes Miserables (2012)
p1666
(lp1667
VDrama
p1668
aVMusical
p1669
aVRomance
p1670
asV47 Ronin
p1671
(lp1672
VAction
p1673
aVAdventure
p1674
aVDrama
p1675
aVFantasy
p1676
asVThe Way
p1677
(lp1678
VAdventure
p1679
aVComedy
p1680
aVDrama
p1681
asVThe Double
p1682
(lp1683
VComedy
p1684
aVDrama
p1685
aVThriller
p1686
asVEdge of Darkness
p1687
(lp1688
VCrime
p1689
aVDrama
p1690
aVMystery
p1691
aVThriller
p1692
asVTotal Recall (2012)
p1693
(lp1694
VAction
p1695
aVAdventure
p1696
aVMystery
p1697
aVSci-Fi
p1698
aVThriller
p1699
asVThe Grand Budapest Hotel
p1700
(lp1701
VAdventure
p1702
aVComedy
p1703
aVDrama
p1704
asVKevin Hart: Laugh at My Pain
p1705
g59
sVDark Shadows
p1706
(lp1707
VComedy
p1708
aVHorror
p1709
asVGrand Depart
p1710
(lp1711
VComedy
p1712
aVDrama
p1713
asVI Want Your Money
p1714
(lp1715
VDocumentary
p1716
asVCinderella (2015)
p1717
(lp1718
VDrama
p1719
aVFamily
p1720
aVFantasy
p1721
aVRomance
p1722
asVYou Again
p1723
(lp1724
VComedy
p1725
aVRomance
p1726
asVMuch Ado About Nothing (2013)
p1727
(lp1728
VComedy
p1729
asVThe People I've Slept With
p1730
(lp1731
VComedy
p1732
asVThe City Dark
p1733
(lp1734
VDocumentary
p1735
aVNews
p1736
asVWarm Bodies
p1737
(lp1738
VComedy
p1739
aVHorror
p1740
aVRomance
p1741
asVJayne Mansfield's Car
p1742
(lp1743
VDrama
p1744
asV3 Days to Kill
p1745
(lp1746
VAction
p1747
aVDrama
p1748
aVThriller
p1749
asVThe Water Diviner
p1750
(lp1751
VDrama
p1752
aVWar
p1753
asVCirque Du Soleil: Worlds Away
p1754
(lp1755
VFantasy
p1756
asVThe Painting (2013)
p1757
(lp1758
VAnimation
p1759
asVThe Man Who Fell to Earth (35th anniversary re-issue)
p1760
g59
sVGangster's Paradise: Jerusalema
p1761
(lp1762
VAction
p1763
aVCrime
p1764
aVDrama
p1765
asVThe Devil's Double
p1766
(lp1767
VBiography
p1768
aVDrama
p1769
aVThriller
p1770
asVThe Cold Light of Day
p1771
(lp1772
VAction
p1773
aVThriller
p1774
asVThe Servant (2013 re-release)
p1775
g203
sVAdult Beginners
p1776
(lp1777
VComedy
p1778
aVDrama
p1779
asV7 Khoon Maaf
p1780
(lp1781
VDrama
p1782
aVMystery
p1783
aVThriller
p1784
asVJ. Edgar
p1785
(lp1786
VBiography
p1787
aVCrime
p1788
aVDrama
p1789
asVSaw 10th Anniversary
p1790
(lp1791
VDocumentary
p1792
aVComedy
p1793
aVNews
p1794
aVTalk-Show
p1795
asVBless Me Ultima
p1796
(lp1797
VDrama
p1798
aVWar
p1799
asVThank You (2011)
p1800
(lp1801
VComedy
p1802
aVDrama
p1803
aVRomance
p1804
asVBelieve
p1805
(lp1806
VDrama
p1807
aVFantasy
p1808
aVSci-Fi
p1809
asVMere Brother Ki Dulhan
p1810
(lp1811
VComedy
p1812
aVDrama
p1813
aVRomance
p1814
asVEndless Love (2014)
p1815
(lp1816
VDrama
p1817
aVRomance
p1818
asVJoker
p1819
(lp1820
VAction
p1821
aVCrime
p1822
aVDrama
p1823
aVThriller
p1824
asVOogieloves In The BIG Balloon Adventure
p1825
(lp1826
VAdventure
p1827
aVFamily
p1828
asVHanna
p1829
(lp1830
VAction
p1831
aVAdventure
p1832
aVThriller
p1833
asVInsidious Chapter 3
p1834
(lp1835
VDrama
p1836
aVHorror
p1837
aVThriller
p1838
asVInsidious Chapter 2
p1839
(lp1840
VDrama
p1841
aVHorror
p1842
aVThriller
p1843
asVHer (2013)
p1844
(lp1845
VDrama
p1846
aVRomance
p1847
aVSci-Fi
p1848
asVThe Last Exorcism
p1849
(lp1850
VDrama
p1851
aVHorror
p1852
aVThriller
p1853
asVParker
p1854
(lp1855
VAction
p1856
aVCrime
p1857
aVThriller
p1858
asVBattleship
p1859
(lp1860
VAction
p1861
aVAdventure
p1862
aVSci-Fi
p1863
aVThriller
p1864
asVThe Croods
p1865
(lp1866
VAnimation
p1867
aVAdventure
p1868
aVComedy
p1869
aVFamily
p1870
aVFantasy
p1871
asVStep Up All In
p1872
(lp1873
VDrama
p1874
aVMusic
p1875
aVRomance
p1876
asVTosca's Kiss (2014 re-release)
p1877
g203
sVMonte Carlo
p1878
(lp1879
VAdventure
p1880
aVComedy
p1881
aVRomance
p1882
asVPrincess Kaiulani
p1883
(lp1884
VDrama
p1885
asVGravity
p1886
(lp1887
VSci-Fi
p1888
aVThriller
p1889
asVThe Disappearance of Alice Creed
p1890
(lp1891
VCrime
p1892
aVThriller
p1893
asVRed
p1894
(lp1895
VAction
p1896
aVComedy
p1897
aVCrime
p1898
aVThriller
p1899
asVApproved for Adoption
p1900
(lp1901
VAnimation
p1902
aVBiography
p1903
aVDrama
p1904
aVFamily
p1905
asVRide Along
p1906
(lp1907
VAction
p1908
aVComedy
p1909
asVIsland of Lemurs: Madagascar (IMAX)
p1910
(lp1911
VDocumentary
p1912
aVShort
p1913
aVAdventure
p1914
aVBiography
p1915
aVFamily
p1916
asVThe Woman in the Fifth
p1917
(lp1918
VDrama
p1919
aVMystery
p1920
aVThriller
p1921
asVMagician: The Astonishing Life and Work of Orson Welles
p1922
(lp1923
VDocumentary
p1924
asVMandela: Long Walk to Freedom
p1925
(lp1926
VBiography
p1927
aVDrama
p1928
aVHistory
p1929
asVI Spit on Your Grave 2
p1930
(lp1931
VCrime
p1932
aVHorror
p1933
aVThriller
p1934
asVJames Cameron's Deepsea Challenge 3D
p1935
(lp1936
VDocumentary
p1937
asVMarvel's The Avengers
p1938
(lp1939
VAction
p1940
aVAdventure
p1941
aVSci-Fi
p1942
asVThis Means War
p1943
(lp1944
VAction
p1945
aVComedy
p1946
aVRomance
p1947
asVInsidious
p1948
(lp1949
VDrama
p1950
aVHorror
p1951
aVMystery
p1952
aVThriller
p1953
asVWaiting for Forever
p1954
(lp1955
VDrama
p1956
aVRomance
p1957
asVThe Hornet's Nest
p1958
(lp1959
VDocumentary
p1960
aVAction
p1961
aVHistory
p1962
aVWar
p1963
asVApollo 18
p1964
(lp1965
VHorror
p1966
aVMystery
p1967
aVSci-Fi
p1968
aVThriller
p1969
asVHigh School
p1970
(lp1971
VComedy
p1972
asVSnowpiercer
p1973
(lp1974
VAction
p1975
aVDrama
p1976
aVSci-Fi
p1977
aVThriller
p1978
asVAustenland
p1979
(lp1980
VComedy
p1981
aVRomance
p1982
asVThe Rum Diary
p1983
(lp1984
VComedy
p1985
aVDrama
p1986
asVMr. Popper's Penguins
p1987
(lp1988
VComedy
p1989
aVFamily
p1990
aVFantasy
p1991
asVBad Teacher
p1992
(lp1993
VComedy
p1994
asVAdmission
p1995
(lp1996
VComedy
p1997
aVDrama
p1998
aVRomance
p1999
asVCasa De Mi Padre
p2000
(lp2001
VComedy
p2002
aVWestern
p2003
asVThe Conjuring
p2004
(lp2005
VHorror
p2006
asVContraband
p2007
(lp2008
VAction
p2009
aVCrime
p2010
aVDrama
p2011
aVThriller
p2012
asVKirk Cameron's Saving Christmas
p2013
(lp2014
VComedy
p2015
aVTalk-Show
p2016
asVCase 39
p2017
(lp2018
VHorror
p2019
aVMystery
p2020
aVThriller
p2021
asVThe Book of Life (2014)
p2022
(lp2023
VAnimation
p2024
aVAdventure
p2025
aVComedy
p2026
aVFamily
p2027
aVFantasy
p2028
aVRomance
p2029
asVTammy
p2030
(lp2031
VComedy
p2032
asVThe Guest (2014)
p2033
(lp2034
VAction
p2035
aVMystery
p2036
aVThriller
p2037
asVFrom Paris with Love
p2038
(lp2039
VAction
p2040
aVThriller
p2041
asVDon't Be Afraid of the Dark
p2042
(lp2043
VFantasy
p2044
aVHorror
p2045
aVThriller
p2046
asVThink Like a Man
p2047
(lp2048
VComedy
p2049
aVRomance
p2050
asVBattle of the Year
p2051
(lp2052
VMusic
p2053
asVThe Artist
p2054
(lp2055
VComedy
p2056
aVDrama
p2057
aVRomance
p2058
asVTop Five
p2059
(lp2060
VComedy
p2061
aVRomance
p2062
asVLast Ounce of Courage
p2063
(lp2064
VDrama
p2065
asVMargin Call
p2066
(lp2067
VDrama
p2068
aVThriller
p2069
asVDown for Life
p2070
(lp2071
VDrama
p2072
asVPhilomena
p2073
(lp2074
VBiography
p2075
aVDrama
p2076
asVThe King and the Mockingbird
p2077
(lp2078
VAnimation
p2079
aVFamily
p2080
aVFantasy
p2081
aVRomance
p2082
asVHappy Feet Two
p2083
(lp2084
VAnimation
p2085
aVComedy
p2086
aVFamily
p2087
aVMusical
p2088
asVThe Runaways
p2089
(lp2090
VBiography
p2091
aVDrama
p2092
aVHistory
p2093
aVMusic
p2094
asVCasablanca (2012 re-release)
p2095
g59
sVAfter Earth
p2096
(lp2097
VAction
p2098
aVAdventure
p2099
aVSci-Fi
p2100
asVA Cat in Paris
p2101
(lp2102
VAnimation
p2103
aVCrime
p2104
aVFamily
p2105
asVGetaway (2013)
p2106
(lp2107
VAction
p2108
aVCrime
p2109
aVThriller
p2110
asVScorn
p2111
(lp2112
VCrime
p2113
aVDrama
p2114
asVCoriolanus
p2115
(lp2116
VDrama
p2117
aVThriller
p2118
aVWar
p2119
asVNoble
p2120
(lp2121
VBiography
p2122
aVDrama
p2123
asVThe Grandmaster
p2124
(lp2125
VAction
p2126
aVBiography
p2127
aVDrama
p2128
asVPenton: The John Penton Story
p2129
(lp2130
VDocumentary
p2131
aVAdventure
p2132
aVBiography
p2133
aVSport
p2134
asVPrometheus
p2135
(lp2136
VAdventure
p2137
aVMystery
p2138
aVSci-Fi
p2139
asVOne Day
p2140
(lp2141
VDrama
p2142
aVRomance
p2143
asVWent The Day Well? (2011 re-release)
p2144
g59
sVThe Incredible Burt Wonderstone
p2145
(lp2146
VComedy
p2147
aVRomance
p2148
asVThe Strange Little Cat
p2149
(lp2150
VComedy
p2151
aVDrama
p2152
aVFamily
p2153
asVLetters to Juliet
p2154
(lp2155
VComedy
p2156
aVDrama
p2157
aVRomance
p2158
asVThe Mighty Macs
p2159
(lp2160
VDrama
p2161
aVSport
p2162
asVThe Inevitable Defeat of Mister and Pete
p2163
(lp2164
VDrama
p2165
asVThe Hunger Games: Mockingjay - Part 1
p2166
(lp2167
VAction
p2168
aVAdventure
p2169
aVSci-Fi
p2170
asVRock of Ages
p2171
(lp2172
VComedy
p2173
aVDrama
p2174
aVMusical
p2175
aVRomance
p2176
asVThe Tales of Hoffmann (2015 re-issue)
p2177
g203
sVBirdman
p2178
(lp2179
VComedy
p2180
aVDrama
p2181
asVBig Mommas: Like Father, Like Son
p2182
(lp2183
VAction
p2184
aVComedy
p2185
aVCrime
p2186
asVCake
p2187
(lp2188
VDrama
p2189
asVAlmost in Love
p2190
(lp2191
VComedy
p2192
aVRomance
p2193
asVBoyhood
p2194
(lp2195
VDrama
p2196
asVAarakshan (Reservation)
p2197
g59
sVBlended
p2198
(lp2199
VComedy
p2200
aVRomance
p2201
asVCaptain America: The Winter Soldier
p2202
(lp2203
VAction
p2204
aVAdventure
p2205
aVSci-Fi
p2206
asVGori Tere Pyaar Mein
p2207
(lp2208
VComedy
p2209
aVRomance
p2210
asVSnowmen
p2211
(lp2212
VFamily
p2213
asVPride (2014)
p2214
(lp2215
VComedy
p2216
aVDrama
p2217
asVOn Any Sunday: The Next Chapter
p2218
(lp2219
VDocumentary
p2220
aVAction
p2221
aVAdventure
p2222
aVSport
p2223
asVDragon Ball Z: Battle of Gods
p2224
(lp2225
VAnimation
p2226
aVAction
p2227
aVComedy
p2228
aVFantasy
p2229
aVSci-Fi
p2230
asVThe Possession
p2231
(lp2232
VHorror
p2233
aVThriller
p2234
asVA Very Harold & Kumar 3D Christmas
p2235
(lp2236
VComedy
p2237
asVTiger Eyes
p2238
(lp2239
VDrama
p2240
asVWish You Were Here (2013)
p2241
(lp2242
VDrama
p2243
asVTrouble with the Curve
p2244
(lp2245
VDrama
p2246
aVSport
p2247
asVHansel and Gretel: Witch Hunters
p2248
(lp2249
VAction
p2250
aVFantasy
p2251
aVHorror
p2252
asVMonkey Kingdom
p2253
(lp2254
VDocumentary
p2255
asVWorld War Z
p2256
(lp2257
VAction
p2258
aVAdventure
p2259
aVHorror
p2260
aVSci-Fi
p2261
aVThriller
p2262
asVDemi-Soeur
p2263
(lp2264
VComedy
p2265
asVHusbands in Goa
p2266
(lp2267
VComedy
p2268
asVBlackbird
p2269
(lp2270
VDrama
p2271
aVMusic
p2272
asVA Walk Among the Tombstones
p2273
(lp2274
VCrime
p2275
aVDrama
p2276
aVMystery
p2277
aVThriller
p2278
asVWaking Sleeping Beauty
p2279
(lp2280
VDocumentary
p2281
asVThe Spy Next Door
p2282
(lp2283
VAction
p2284
aVComedy
p2285
aVFamily
p2286
asVAbout Last Night (2014)
p2287
(lp2288
VComedy
p2289
aVRomance
p2290
asVPassion Play
p2291
(lp2292
VDrama
p2293
aVFantasy
p2294
aVRomance
p2295
asVFree Birds
p2296
(lp2297
VAnimation
p2298
aVAdventure
p2299
aVComedy
p2300
aVFamily
p2301
asVPaul Blart: Mall Cop 2
p2302
(lp2303
VAction
p2304
aVComedy
p2305
aVCrime
p2306
asVThe D Train
p2307
(lp2308
VComedy
p2309
asVBridesmaids
p2310
(lp2311
VComedy
p2312
aVRomance
p2313
asVThis Must Be the Place
p2314
(lp2315
VComedy
p2316
aVDrama
p2317
asVSaw 3D
p2318
(lp2319
VHorror
p2320
aVMystery
p2321
asVRowdy Rathore
p2322
(lp2323
VAction
p2324
aVComedy
p2325
asVRed Tails
p2326
(lp2327
VAction
p2328
aVAdventure
p2329
aVDrama
p2330
aVHistory
p2331
aVWar
p2332
asVStone
p2333
(lp2334
VDrama
p2335
aVThriller
p2336
asVThe Maze Runner
p2337
(lp2338
VAction
p2339
aVMystery
p2340
aVSci-Fi
p2341
aVThriller
p2342
asVBorn to Fly: Elizabeth Streb vs. Gravity
p2343
(lp2344
VDocumentary
p2345
aVAction
p2346
aVBiography
p2347
aVSport
p2348
asVThe Social Network
p2349
(lp2350
VBiography
p2351
aVDrama
p2352
asVLegend of the Guardians: The Owls of Ga'Hoole
p2353
(lp2354
VAnimation
p2355
aVAdventure
p2356
aVFantasy
p2357
asVProject Almanac
p2358
(lp2359
VSci-Fi
p2360
aVThriller
p2361
asVGame of Thrones (IMAX)
p2362
(lp2363
VAdventure
p2364
aVDrama
p2365
aVFantasy
p2366
asVSherlock Holmes: A Game of Shadows
p2367
(lp2368
VAction
p2369
aVAdventure
p2370
aVCrime
p2371
aVMystery
p2372
aVThriller
p2373
asVUndertow (2010)
p2374
(lp2375
VShort
p2376
aVDrama
p2377
asVThe Dilemma
p2378
(lp2379
VComedy
p2380
aVDrama
p2381
asVPuss in Boots
p2382
(lp2383
VAnimation
p2384
aVAdventure
p2385
aVComedy
p2386
aVFamily
p2387
asVHome Run Showdown
p2388
(lp2389
VFamily
p2390
aVSport
p2391
asVBefore You Know It
p2392
(lp2393
VDocumentary
p2394
aVBiography
p2395
aVDrama
p2396
asVGo For It
p2397
(lp2398
VAction
p2399
aVAdventure
p2400
aVComedy
p2401
asVRun All Night
p2402
(lp2403
VAction
p2404
aVCrime
p2405
aVDrama
p2406
aVMystery
p2407
aVThriller
p2408
asVAbduction
p2409
(lp2410
VAction
p2411
aVMystery
p2412
aVThriller
p2413
asVAnother Earth
p2414
(lp2415
VDrama
p2416
aVRomance
p2417
aVSci-Fi
p2418
asVA La Mala
p2419
(lp2420
VComedy
p2421
asVRevelation Road 2
p2422
(lp2423
VNews
p2424
aVSci-Fi
p2425
asVEk Tha Tiger
p2426
(lp2427
VAction
p2428
aVRomance
p2429
aVThriller
p2430
asVHello Herman
p2431
(lp2432
VDrama
p2433
asVThe Change-Up
p2434
(lp2435
VComedy
p2436
asVNowhere Boy
p2437
(lp2438
VBiography
p2439
aVDrama
p2440
aVMusic
p2441
asVKnights of Badassdom
p2442
(lp2443
VAdventure
p2444
aVComedy
p2445
aVFantasy
p2446
aVHorror
p2447
asVNostalgia for the Light
p2448
(lp2449
VDocumentary
p2450
aVDrama
p2451
asVHesher
p2452
(lp2453
VDrama
p2454
asVThe Last Airbender
p2455
(lp2456
VAction
p2457
aVAdventure
p2458
aVFamily
p2459
aVFantasy
p2460
asVOz The Great and Powerful
p2461
(lp2462
VAdventure
p2463
aVFamily
p2464
aVFantasy
p2465
asVBully (PG-13)
p2466
g59
sVCode Black
p2467
(lp2468
VDrama
p2469
asVIron Sky
p2470
(lp2471
VAction
p2472
aVComedy
p2473
aVSci-Fi
p2474
asVStand Up Guys
p2475
(lp2476
VComedy
p2477
aVCrime
p2478
aVThriller
p2479
asVReturn to The Hiding Place
p2480
(lp2481
VDrama
p2482
aVHistory
p2483
aVThriller
p2484
aVWar
p2485
asVSt. Vincent
p2486
(lp2487
VComedy
p2488
aVDrama
p2489
asVDevil's Due
p2490
(lp2491
VHorror
p2492
aVMystery
p2493
asVBlack Swan
p2494
(lp2495
VDrama
p2496
aVMystery
p2497
aVThriller
p2498
asVTorn
p2499
(lp2500
VDrama
p2501
asVInSpectres
p2502
(lp2503
VComedy
p2504
asVThe Five-Year Engagement
p2505
(lp2506
VComedy
p2507
aVRomance
p2508
asV2 Guns
p2509
(lp2510
VAction
p2511
aVComedy
p2512
aVCrime
p2513
aVDrama
p2514
aVThriller
p2515
asVHotel Transylvania
p2516
(lp2517
VAnimation
p2518
aVComedy
p2519
aVFamily
p2520
aVFantasy
p2521
asVWatermark
p2522
(lp2523
VDocumentary
p2524
asVPromised Land (2012)
p2525
(lp2526
VDrama
p2527
asVOceans
p2528
(lp2529
VDocumentary
p2530
aVDrama
p2531
asVWhat to Expect When You're Expecting
p2532
(lp2533
VComedy
p2534
aVDrama
p2535
aVRomance
p2536
asVAfternoon Delight
p2537
(lp2538
VComedy
p2539
aVDrama
p2540
asVForks Over Knives
p2541
(lp2542
VDocumentary
p2543
asVColombiana
p2544
(lp2545
VAction
p2546
aVCrime
p2547
aVDrama
p2548
aVThriller
p2549
asVCountry Strong
p2550
(lp2551
VDrama
p2552
aVMusic
p2553
asVRed State
p2554
(lp2555
VAction
p2556
aVCrime
p2557
aVHorror
p2558
aVThriller
p2559
asVChef
p2560
(lp2561
VAdventure
p2562
aVComedy
p2563
aVDrama
p2564
asVThe Beaver
p2565
(lp2566
VDrama
p2567
asVMetallica Through the Never
p2568
(lp2569
VMusic
p2570
asVThe Lost Medallion
p2571
(lp2572
VAdventure
p2573
aVFamily
p2574
aVFantasy
p2575
asVGet Hard
p2576
(lp2577
VComedy
p2578
asVWater & Power
p2579
(lp2580
VCrime
p2581
aVDrama
p2582
asVMuppets Most Wanted
p2583
(lp2584
VAdventure
p2585
aVComedy
p2586
aVCrime
p2587
aVFamily
p2588
aVMusical
p2589
asVThe Fluffy Movie
p2590
(lp2591
VComedy
p2592
asVThree Night Stand
p2593
(lp2594
VComedy
p2595
aVDrama
p2596
asVJack Goes Boating
p2597
(lp2598
VComedy
p2599
aVDrama
p2600
aVRomance
p2601
asVPlanes: Fire & Rescue
p2602
(lp2603
VAnimation
p2604
aVAdventure
p2605
aVComedy
p2606
aVFamily
p2607
asVThe Smurfs 2
p2608
(lp2609
VAnimation
p2610
aVAdventure
p2611
aVComedy
p2612
aVFamily
p2613
aVFantasy
p2614
asV5 Flights Up
p2615
(lp2616
VDrama
p2617
asVAnything For Alice
p2618
(lp2619
VComedy
p2620
asVBran Nue Dae
p2621
(lp2622
VComedy
p2623
aVDrama
p2624
aVMusical
p2625
asVDrive (2011)
p2626
(lp2627
VCrime
p2628
aVDrama
p2629
asVKevin Hart: Let Me Explain
p2630
(lp2631
VDocumentary
p2632
aVComedy
p2633
asVThe Miners' Hymns
p2634
(lp2635
VDrama
p2636
asVUnder the Electric Sky
p2637
(lp2638
VDocumentary
p2639
aVMusic
p2640
asVClosed Circuit
p2641
(lp2642
VCrime
p2643
aVDrama
p2644
aVMystery
p2645
aVThriller
p2646
asVSettai
p2647
(lp2648
VComedy
p2649
aVCrime
p2650
asVAnswers to Nothing
p2651
(lp2652
VDrama
p2653
aVMystery
p2654
asVThe Vow
p2655
(lp2656
VDrama
p2657
aVRomance
p2658
asVNothing Left to Fear
p2659
(lp2660
VHorror
p2661
asVShahid
p2662
(lp2663
VBiography
p2664
aVCrime
p2665
aVDrama
p2666
aVThriller
p2667
asVA Late Quartet
p2668
(lp2669
VDrama
p2670
aVMusic
p2671
asVDear John
p2672
(lp2673
VDrama
p2674
aVRomance
p2675
aVWar
p2676
asVA Little Help
p2677
(lp2678
VComedy
p2679
aVDrama
p2680
aVRomance
p2681
asVInto The Storm
p2682
(lp2683
VAction
p2684
aVThriller
p2685
asVTo Rome with Love
p2686
(lp2687
VComedy
p2688
aVRomance
p2689
asVSupermensch: The Legend of Shep Gordon
p2690
(lp2691
VDocumentary
p2692
aVBiography
p2693
asVThe Wolverine
p2694
(lp2695
VAction
p2696
aVAdventure
p2697
aVSci-Fi
p2698
aVThriller
p2699
asVShut Up and Play the Hits
p2700
(lp2701
VDocumentary
p2702
aVMusic
p2703
asVDiary of a Wimpy Kid: Dog Days
p2704
(lp2705
VComedy
p2706
aVFamily
p2707
asVThe Twilight Saga: Breaking Dawn Part 2
p2708
(lp2709
VDocumentary
p2710
aVNews
p2711
asVPacific Rim
p2712
(lp2713
VAction
p2714
aVAdventure
p2715
aVSci-Fi
p2716
asVThe Twilight Saga: Breaking Dawn Part 1
p2717
(lp2718
VAdventure
p2719
aVDrama
p2720
aVFantasy
p2721
aVRomance
p2722
asVHappy Tears
p2723
(lp2724
VComedy
p2725
aVDrama
p2726
asVThe Smurfs
p2727
(lp2728
VAnimation
p2729
aVAdventure
p2730
aVComedy
p2731
aVFamily
p2732
aVFantasy
p2733
asVGet On Up
p2734
(lp2735
VBiography
p2736
aVDrama
p2737
aVMusic
p2738
asVDjango Unchained
p2739
(lp2740
VWestern
p2741
asVTurbo
p2742
(lp2743
VAnimation
p2744
aVAdventure
p2745
aVComedy
p2746
aVFamily
p2747
aVSport
p2748
asVGreen Zone
p2749
(lp2750
VAction
p2751
aVDrama
p2752
aVThriller
p2753
aVWar
p2754
asVSoldiers of Fortune
p2755
(lp2756
VAction
p2757
aVAdventure
p2758
asVKilling Them Softly
p2759
(lp2760
VCrime
p2761
aVThriller
p2762
asVPercy Jackson & The Olympians: The Lightning Thief
p2763
(lp2764
VAdventure
p2765
aVFamily
p2766
aVFantasy
p2767
asVAntoine and Antoinette (2013 re-issue)
p2768
g203
sVKeep On Keepin' On
p2769
(lp2770
VDocumentary
p2771
asVFrankie & Alice
p2772
(lp2773
VBiography
p2774
aVDrama
p2775
asVThe Day
p2776
(lp2777
VAction
p2778
aVDrama
p2779
aVHorror
p2780
aVSci-Fi
p2781
aVThriller
p2782
asVCa$h
p2783
(lp2784
VComedy
p2785
aVCrime
p2786
aVThriller
p2787
asVMy Uncle Rafael
p2788
(lp2789
VComedy
p2790
asVMaggie
p2791
(lp2792
VDrama
p2793
aVHorror
p2794
aVThriller
p2795
asVTouchback
p2796
(lp2797
VDrama
p2798
aVFamily
p2799
aVFantasy
p2800
aVSport
p2801
asVShe's Beautiful When She's Angry
p2802
(lp2803
VDocumentary
p2804
aVHistory
p2805
asVThe Music Never Stopped
p2806
(lp2807
VDrama
p2808
asVRed 2
p2809
(lp2810
VAction
p2811
aVComedy
p2812
aVCrime
p2813
aVThriller
p2814
asVLegends of Oz: Dorothy's Return
p2815
(lp2816
VAnimation
p2817
aVFamily
p2818
aVMusical
p2819
asVGun Hill Road
p2820
(lp2821
VDrama
p2822
asVRaja Natwarlal
p2823
(lp2824
VDrama
p2825
aVThriller
p2826
asVMirror Mirror
p2827
(lp2828
VAdventure
p2829
aVComedy
p2830
aVDrama
p2831
aVFamily
p2832
aVFantasy
p2833
asVThe East
p2834
(lp2835
VDrama
p2836
aVThriller
p2837
asVResident Evil: Retribution
p2838
(lp2839
VAction
p2840
aVHorror
p2841
aVSci-Fi
p2842
aVThriller
p2843
asVPitch Perfect 2
p2844
(lp2845
VComedy
p2846
aVMusic
p2847
asVHecho En Mexico
p2848
(lp2849
VDocumentary
p2850
aVHistory
p2851
aVMusic
p2852
aVMusical
p2853
asVYogi Bear
p2854
(lp2855
VAnimation
p2856
aVAdventure
p2857
aVComedy
p2858
aVFamily
p2859
asVInterstellar
p2860
(lp2861
VAdventure
p2862
aVDrama
p2863
aVSci-Fi
p2864
asVStoker
p2865
(lp2866
VDrama
p2867
aVMystery
p2868
aVThriller
p2869
asVThe Girl Who Played with Fire
p2870
(lp2871
VAction
p2872
aVMystery
p2873
aVThriller
p2874
asV21 and Over
p2875
(lp2876
VComedy
p2877
asVBig Eyes
p2878
(lp2879
VBiography
p2880
aVCrime
p2881
aVDrama
p2882
aVRomance
p2883
asVWalking with Dinosaurs
p2884
(lp2885
VAnimation
p2886
aVAdventure
p2887
aVFamily
p2888
asVThe Devil Inside
p2889
(lp2890
VHorror
p2891
asVChimpanzee
p2892
(lp2893
VDocumentary
p2894
asVNeed for Speed
p2895
(lp2896
VAction
p2897
aVCrime
p2898
aVDrama
p2899
aVThriller
p2900
asVMachete
p2901
(lp2902
VAction
p2903
aVCrime
p2904
aVThriller
p2905
asVThaandavam
p2906
(lp2907
VAction
p2908
aVThriller
p2909
asVThe Chronicles of Narnia: The Voyage of the Dawn Treader
p2910
(lp2911
VAdventure
p2912
aVFamily
p2913
aVFantasy
p2914
asVWhat Women Want (Wo Zhi Nu Run Xin) 
p2915
g59
sVThe Last Mountain
p2916
(lp2917
VDocumentary
p2918
asVSilent House
p2919
(lp2920
VHorror
p2921
aVMystery
p2922
aVThriller
p2923
asVHow to Train Your Dragon
p2924
(lp2925
VAnimation
p2926
aVAdventure
p2927
aVFamily
p2928
aVFantasy
p2929
asVTed 2
p2930
(lp2931
VComedy
p2932
asVGodzilla (2014)
p2933
(lp2934
VAction
p2935
aVAdventure
p2936
aVSci-Fi
p2937
aVThriller
p2938
asVThe Dictator
p2939
(lp2940
VComedy
p2941
aVDrama
p2942
aVWar
p2943
asVC.O.G.
p2944
(lp2945
VComedy
p2946
aVDrama
p2947
asVThe Roommate
p2948
(lp2949
VDrama
p2950
aVHorror
p2951
aVThriller
p2952
asVThink Like a Man Too
p2953
(lp2954
VComedy
p2955
aVRomance
p2956
asVJobs
p2957
(lp2958
VBiography
p2959
asVLone Survivor
p2960
(lp2961
VAction
p2962
aVBiography
p2963
aVDrama
p2964
aVThriller
p2965
aVWar
p2966
asVYour Highness
p2967
(lp2968
VAdventure
p2969
aVComedy
p2970
aVFantasy
p2971
asVScatter My Ashes at Bergdorf's
p2972
(lp2973
VDocumentary
p2974
asVMargaret
p2975
(lp2976
VDrama
p2977
asVAnonymous
p2978
(lp2979
VDrama
p2980
aVHistory
p2981
aVThriller
p2982
asVIn the Land of Blood and Honey
p2983
(lp2984
VDrama
p2985
aVRomance
p2986
aVWar
p2987
asVMan on a Ledge
p2988
(lp2989
VAction
p2990
aVCrime
p2991
aVThriller
p2992
asVThe Watch
p2993
(lp2994
VAction
p2995
aVComedy
p2996
aVSci-Fi
p2997
asVHitchcock
p2998
(lp2999
VBiography
p3000
aVDrama
p3001
asVA Long Way Off
p3002
(lp3003
VDrama
p3004
aVFamily
p3005
aVRomance
p3006
asVHeropanti
p3007
(lp3008
VAction
p3009
aVRomance
p3010
asVDark Star: H.R. Giger's World
p3011
(lp3012
VDocumentary
p3013
aVBiography
p3014
asVEat Pray Love
p3015
(lp3016
VDrama
p3017
aVRomance
p3018
asVPredators
p3019
(lp3020
VAction
p3021
aVAdventure
p3022
aVSci-Fi
p3023
aVThriller
p3024
asVThe Other Dream Team
p3025
(lp3026
VDocumentary
p3027
aVSport
p3028
asVBad Words
p3029
(lp3030
VComedy
p3031
aVDrama
p3032
asVGrown Ups 2
p3033
(lp3034
VComedy
p3035
asVKingsman: The Secret Service
p3036
(lp3037
VAction
p3038
aVAdventure
p3039
aVComedy
p3040
aVCrime
p3041
aVSci-Fi
p3042
asVFun Size
p3043
(lp3044
VAdventure
p3045
aVComedy
p3046
asVGirl Rising
p3047
(lp3048
VDocumentary
p3049
asVAssaulted: Civil Rights Under Fire
p3050
(lp3051
VDocumentary
p3052
asVPrince of Persia: The Sands of Time
p3053
(lp3054
VAction
p3055
aVAdventure
p3056
aVFantasy
p3057
aVRomance
p3058
asVHomefront
p3059
(lp3060
VAction
p3061
aVCrime
p3062
aVDrama
p3063
aVThriller
p3064
asVChico & Rita
p3065
(lp3066
VAnimation
p3067
aVMusic
p3068
aVRomance
p3069
asVThis Ain't No Mouse Music!
p3070
(lp3071
VDocumentary
p3072
asVEl Milagro De Marcelino Pan
p3073
(lp3074
VFamily
p3075
asVThe Town
p3076
(lp3077
VCrime
p3078
aVDrama
p3079
aVThriller
p3080
asVJohn Wick
p3081
(lp3082
VAction
p3083
aVThriller
p3084
asVDiary of a Wimpy Kid: Rodrick Rules
p3085
(lp3086
VComedy
p3087
aVFamily
p3088
asVSeeking a Friend for the End of the World
p3089
(lp3090
VAdventure
p3091
aVComedy
p3092
aVDrama
p3093
aVRomance
p3094
aVSci-Fi
p3095
asVThe Man with the Iron Fists
p3096
(lp3097
VAction
p3098
asVSinbad: The Fifth Voyage
p3099
(lp3100
VAction
p3101
aVAdventure
p3102
aVFantasy
p3103
asVNow You See Me
p3104
(lp3105
VCrime
p3106
aVMystery
p3107
aVThriller
p3108
asVDysfunctional Friends
p3109
(lp3110
VComedy
p3111
aVDrama
p3112
asVFilly Brown
p3113
(lp3114
VDrama
p3115
aVMusic
p3116
asVAll is Bright
p3117
(lp3118
VComedy
p3119
aVDrama
p3120
asVLuv Shuv Tey Chicken Khurana
p3121
(lp3122
VComedy
p3123
asVI Spit on Your Grave
p3124
(lp3125
VCrime
p3126
aVHorror
p3127
aVThriller
p3128
asVMonsters University
p3129
(lp3130
VAnimation
p3131
aVAdventure
p3132
aVComedy
p3133
aVFamily
p3134
aVFantasy
p3135
asVMidnight in Paris
p3136
(lp3137
VComedy
p3138
aVRomance
p3139
asVYoung Adult
p3140
(lp3141
VComedy
p3142
aVDrama
p3143
asVThe Expendables 3
p3144
(lp3145
VAction
p3146
aVAdventure
p3147
aVThriller
p3148
asVCassadaga
p3149
(lp3150
VHorror
p3151
aVThriller
p3152
asVLiving in Emergency
p3153
(lp3154
VDocumentary
p3155
asVMortdecai
p3156
(lp3157
VAction
p3158
aVComedy
p3159
aVMystery
p3160
aVRomance
p3161
asVOur Family Wedding
p3162
(lp3163
VComedy
p3164
aVRomance
p3165
asVThe Expendables 2
p3166
(lp3167
VAction
p3168
aVAdventure
p3169
aVThriller
p3170
asVNo Strings Attached
p3171
(lp3172
VComedy
p3173
aVRomance
p3174
asVThe Nutcracker in 3D
p3175
(lp3176
VAction
p3177
aVFamily
p3178
aVFantasy
p3179
aVMusical
p3180
asV50 to 1
p3181
(lp3182
VDrama
p3183
asVTanu Weds Manu Returns
p3184
(lp3185
VComedy
p3186
aVDrama
p3187
aVRomance
p3188
asVSplice
p3189
(lp3190
VHorror
p3191
aVSci-Fi
p3192
asVThe Quitter
p3193
(lp3194
VComedy
p3195
aVDrama
p3196
asVDr. Seuss' The Lorax
p3197
(lp3198
VAnimation
p3199
aVComedy
p3200
aVFamily
p3201
aVFantasy
p3202
asVRadio Free Albemuth
p3203
(lp3204
VDrama
p3205
aVSci-Fi
p3206
asVGladiators of Rome
p3207
(lp3208
VAnimation
p3209
aVAdventure
p3210
aVComedy
p3211
asVIndigo Children
p3212
(lp3213
VDrama
p3214
asVBig Miracle
p3215
(lp3216
VBiography
p3217
aVDrama
p3218
aVRomance
p3219
asVSaheb Biwi Aur Gangster
p3220
(lp3221
VAction
p3222
aVCrime
p3223
aVDrama
p3224
aVThriller
p3225
asVBatman Begins (2012 re-release)
p3226
g59
sVSafe Haven
p3227
(lp3228
VDrama
p3229
aVRomance
p3230
aVThriller
p3231
asV71 Into the Fire
p3232
(lp3233
VDrama
p3234
asVThe Expendables
p3235
(lp3236
VAction
p3237
aVAdventure
p3238
aVThriller
p3239
asVThe Ides of March
p3240
(lp3241
VDrama
p3242
asVLife as We Know It
p3243
(lp3244
VComedy
p3245
aVSci-Fi
p3246
asVAmerica (2014)
p3247
(lp3248
VShort
p3249
asVThe Remaining
p3250
(lp3251
VHorror
p3252
aVThriller
p3253
asVHow Do You Know
p3254
(lp3255
VComedy
p3256
aVDrama
p3257
aVRomance
p3258
asVBitch Slap
p3259
(lp3260
VAction
p3261
aVComedy
p3262
aVCrime
p3263
aVThriller
p3264
asVUn Flic (2013 re-release)
p3265
g203
sVHop
p3266
(lp3267
VAnimation
p3268
aVAdventure
p3269
aVComedy
p3270
aVFamily
p3271
aVFantasy
p3272
asVStanding Ovation
p3273
(lp3274
VMusical
p3275
asVDawn of the Planet of the Apes
p3276
(lp3277
VAction
p3278
aVDrama
p3279
aVSci-Fi
p3280
aVThriller
p3281
asVStep Up Revolution
p3282
(lp3283
VDrama
p3284
aVMusic
p3285
aVRomance
p3286
asVLove & Mercy
p3287
(lp3288
VBiography
p3289
aVDrama
p3290
aVMusic
p3291
asVThe Call
p3292
(lp3293
VCrime
p3294
aVThriller
p3295
asVUnstoppable
p3296
(lp3297
VAction
p3298
aVThriller
p3299
asVThe Sisterhood of Night
p3300
(lp3301
VDrama
p3302
aVMystery
p3303
aVThriller
p3304
asVBeauty and the Beast (3D)
p3305
(lp3306
VDrama
p3307
aVRomance
p3308
aVThriller
p3309
asVWe Are What We Are
p3310
(lp3311
VDrama
p3312
aVHorror
p3313
aVThriller
p3314
asVThe Great Invisible
p3315
(lp3316
VDocumentary
p3317
asVProject X
p3318
(lp3319
VComedy
p3320
aVCrime
p3321
asVAfternoon of a Faun
p3322
(lp3323
VShort
p3324
aVAnimation
p3325
asVDracula Untold
p3326
(lp3327
VAction
p3328
aVDrama
p3329
aVFantasy
p3330
aVHorror
p3331
aVWar
p3332
asVFor a Good Time, Call... 
p3333
(lp3334
VComedy
p3335
asVAnchorman 2: The Legend Continues
p3336
(lp3337
VComedy
p3338
asVSpinning Plates
p3339
(lp3340
VDocumentary
p3341
asVThe Perfect Game
p3342
(lp3343
VComedy
p3344
aVDrama
p3345
aVFamily
p3346
aVSport
p3347
asVShutter Island
p3348
(lp3349
VMystery
p3350
aVThriller
p3351
asVWanderlust
p3352
(lp3353
VComedy
p3354
asVNanny McPhee Returns
p3355
(lp3356
VComedy
p3357
aVFamily
p3358
aVFantasy
p3359
asVUnknown
p3360
(lp3361
VAction
p3362
aVMystery
p3363
aVThriller
p3364
asVHighway (2014)
p3365
(lp3366
VAdventure
p3367
aVDrama
p3368
aVRomance
p3369
asVResident Evil: Afterlife
p3370
(lp3371
VAction
p3372
aVAdventure
p3373
aVHorror
p3374
aVSci-Fi
p3375
asVCitizenfour
p3376
(lp3377
VDocumentary
p3378
asVHome (2015)
p3379
(lp3380
VAnimation
p3381
aVAdventure
p3382
aVComedy
p3383
aVFamily
p3384
aVFantasy
p3385
aVSci-Fi
p3386
asVJust Wright
p3387
(lp3388
VComedy
p3389
aVRomance
p3390
aVSport
p3391
asVMarmaduke
p3392
(lp3393
VComedy
p3394
aVFamily
p3395
asVDiary of a Wimpy Kid
p3396
(lp3397
VComedy
p3398
aVFamily
p3399
asVGulliver's Travels
p3400
(lp3401
VAdventure
p3402
aVComedy
p3403
aVFamily
p3404
aVFantasy
p3405
asVX-Men: First Class
p3406
(lp3407
VAction
p3408
aVAdventure
p3409
aVSci-Fi
p3410
asVKalakalappu@Masala Cafe
p3411
(lp3412
VComedy
p3413
asVAmerican Hustle
p3414
(lp3415
VCrime
p3416
aVDrama
p3417
asVCartas a Elena
p3418
(lp3419
VDrama
p3420
asVThe Hangover Part II
p3421
(lp3422
VComedy
p3423
asVNo Eres Tu, Soy Yo
p3424
(lp3425
VComedy
p3426
aVRomance
p3427
asVStep Up 3-D
p3428
(lp3429
VDrama
p3430
aVMusic
p3431
aVRomance
p3432
asVThe Hobbit: The Battle of the Five Armies
p3433
(lp3434
VAdventure
p3435
aVFantasy
p3436
asVSalt
p3437
(lp3438
VAction
p3439
aVCrime
p3440
aVMystery
p3441
aVThriller
p3442
asVHot Tub Time Machine
p3443
(lp3444
VComedy
p3445
aVSci-Fi
p3446
asVThe Best Exotic Marigold Hotel
p3447
(lp3448
VComedy
p3449
aVDrama
p3450
asVNoah
p3451
(lp3452
VAction
p3453
aVAdventure
p3454
aVDrama
p3455
asVAfter The Ball
p3456
(lp3457
VComedy
p3458
asVG.I. Joe: Retaliation
p3459
(lp3460
VAction
p3461
aVAdventure
p3462
aVSci-Fi
p3463
aVThriller
p3464
asVHemingway's Garden of Eden
p3465
(lp3466
VDrama
p3467
aVThriller
p3468
asVThe Grey
p3469
(lp3470
VAdventure
p3471
aVDrama
p3472
aVThriller
p3473
asVSan Andreas
p3474
(lp3475
VAction
p3476
aVDrama
p3477
aVThriller
p3478
asVTo the Arctic (IMAX)
p3479
(lp3480
VDocumentary
p3481
asVDesert Dancer
p3482
(lp3483
VBiography
p3484
aVDrama
p3485
asVAll Is Lost
p3486
(lp3487
VAction
p3488
aVAdventure
p3489
aVDrama
p3490
asVThe Wrecking Crew
p3491
(lp3492
VDocumentary
p3493
aVMusic
p3494
asVWinter's Tale
p3495
(lp3496
VDrama
p3497
aVFantasy
p3498
aVMystery
p3499
aVRomance
p3500
asVA Letter to Momo
p3501
(lp3502
VAnimation
p3503
aVDrama
p3504
aVFamily
p3505
aVFantasy
p3506
asVBlack Sea
p3507
(lp3508
VAdventure
p3509
aVThriller
p3510
asVAlone Yet Not Alone
p3511
(lp3512
VHistory
p3513
asVCalvary
p3514
(lp3515
VDrama
p3516
asVThe Bodyguard (2012 re-release)
p3517
g59
sVSomething From Nothing: The Art of Rap
p3518
(lp3519
VDocumentary
p3520
aVMusic
p3521
asVWar Horse
p3522
(lp3523
VDrama
p3524
aVWar
p3525
asVKaty Perry: Part of Me
p3526
(lp3527
VDocumentary
p3528
aVMusic
p3529
asVFrankie & Alice (2014)
p3530
(lp3531
VBiography
p3532
aVDrama
p3533
asVKill the Irishman
p3534
(lp3535
VAction
p3536
aVBiography
p3537
aVCrime
p3538
aVDrama
p3539
aVThriller
p3540
asVHubble 3D
p3541
(lp3542
VDocumentary
p3543
aVShort
p3544
asVWho Took Johnny
p3545
(lp3546
VDocumentary
p3547
aVBiography
p3548
aVDrama
p3549
aVMystery
p3550
asVThe Family (2013)
p3551
(lp3552
VComedy
p3553
aVCrime
p3554
aVThriller
p3555
asVKiller Elite
p3556
(lp3557
VAction
p3558
aVCrime
p3559
aVThriller
p3560
asVThe Odd Life of Timothy Green
p3561
(lp3562
VComedy
p3563
aVDrama
p3564
aVFamily
p3565
aVFantasy
p3566
asVDevil
p3567
(lp3568
VHorror
p3569
aVMystery
p3570
aVThriller
p3571
asVThe Master
p3572
(lp3573
VDrama
p3574
asVParaNorman
p3575
(lp3576
VAnimation
p3577
aVAdventure
p3578
aVComedy
p3579
aVFamily
p3580
aVFantasy
p3581
asVMen, Women & Children
p3582
(lp3583
VComedy
p3584
aVDrama
p3585
asVThe Secret of Kells
p3586
(lp3587
VAnimation
p3588
aVAdventure
p3589
aVFamily
p3590
aVFantasy
p3591
asVExtremely Loud & Incredibly Close
p3592
(lp3593
VAdventure
p3594
aVDrama
p3595
aVMystery
p3596
asVKochadaiiyaan
p3597
(lp3598
VAnimation
p3599
aVAction
p3600
aVAdventure
p3601
aVHistory
p3602
asVCircumstance
p3603
(lp3604
VDrama
p3605
asVDespicable Me 2
p3606
(lp3607
VAnimation
p3608
aVComedy
p3609
aVFamily
p3610
asVPeople Like Us
p3611
(lp3612
VDrama
p3613
asVMinions
p3614
(lp3615
VAnimation
p3616
aVComedy
p3617
aVFamily
p3618
asVDeitrick Haddon's A Beautiful Soul
p3619
g59
sVArgo
p3620
(lp3621
VDrama
p3622
aVHistory
p3623
aVThriller
p3624
asVDark Skies
p3625
(lp3626
VHorror
p3627
aVSci-Fi
p3628
asVTower Heist
p3629
(lp3630
VAction
p3631
aVComedy
p3632
aVCrime
p3633
asVTimbuktu
p3634
(lp3635
VDrama
p3636
asVABCD (Any Body Can Dance) 2
p3637
(lp3638
VMusic
p3639
aVWestern
p3640
asVOfficer Down
p3641
(lp3642
VCrime
p3643
aVDrama
p3644
asVChennai Express
p3645
(lp3646
VAction
p3647
aVComedy
p3648
aVRomance
p3649
asVThe Pretty One
p3650
(lp3651
VComedy
p3652
aVDrama
p3653
asVWords and Pictures
p3654
(lp3655
VComedy
p3656
aVDrama
p3657
aVRomance
p3658
asVThe Playroom
p3659
(lp3660
VDrama
p3661
asVRaajneeti
p3662
(lp3663
VAction
p3664
aVCrime
p3665
aVDrama
p3666
aVThriller
p3667
asVAtlas Shrugged: Part I
p3668
(lp3669
VDrama
p3670
aVMystery
p3671
aVSci-Fi
p3672
asVIris (2015)
p3673
(lp3674
VAction
p3675
aVDrama
p3676
aVSci-Fi
p3677
asVKung Fu Panda 2
p3678
(lp3679
VAnimation
p3680
aVAction
p3681
aVAdventure
p3682
aVComedy
p3683
aVDrama
p3684
aVFamily
p3685
asVSnow Flower and the Secret Fan
p3686
(lp3687
VDrama
p3688
aVHistory
p3689
asVWin Win
p3690
(lp3691
VComedy
p3692
aVDrama
p3693
aVSport
p3694
asVA Good Day to Die Hard
p3695
(lp3696
VAction
p3697
aVCrime
p3698
aVThriller
p3699
asVDaylight (2011)
p3700
(lp3701
VAnimation
p3702
aVNews
p3703
asVN'Secure
p3704
(lp3705
VCrime
p3706
aVDrama
p3707
aVThriller
p3708
asVFootloose (2011)
p3709
(lp3710
VComedy
p3711
aVDrama
p3712
aVMusic
p3713
aVRomance
p3714
asVHeroine
p3715
(lp3716
VAdventure
p3717
aVDrama
p3718
aVFantasy
p3719
asVDecoding Annie Parker
p3720
(lp3721
VDrama
p3722
asVGirl Most Likely
p3723
(lp3724
VComedy
p3725
asVHeaven is for Real
p3726
(lp3727
VDrama
p3728
asVNebraska
p3729
(lp3730
VAdventure
p3731
aVDrama
p3732
asVElysium
p3733
(lp3734
VAction
p3735
aVDrama
p3736
aVSci-Fi
p3737
aVThriller
p3738
asVSatyagraha
p3739
(lp3740
VDrama
p3741
asVThe Apparition
p3742
(lp3743
VHorror
p3744
aVThriller
p3745
asVMaleficent
p3746
(lp3747
VAction
p3748
aVAdventure
p3749
aVFamily
p3750
aVFantasy
p3751
aVRomance
p3752
asVThat's My Boy
p3753
(lp3754
VComedy
p3755
asVThe Disappearance of Eleanor Rigby
p3756
(lp3757
VDrama
p3758
asVPlaying for Keeps
p3759
(lp3760
VComedy
p3761
aVRomance
p3762
aVSport
p3763
asVGhost Rider: Spirit of Vengeance
p3764
(lp3765
VAction
p3766
aVFantasy
p3767
aVThriller
p3768
asVRepo Men
p3769
(lp3770
VAction
p3771
aVCrime
p3772
aVSci-Fi
p3773
aVThriller
p3774
asVImmortals
p3775
(lp3776
VAction
p3777
aVDrama
p3778
aVFantasy
p3779
asVStar Trek Into Darkness
p3780
(lp3781
VAction
p3782
aVAdventure
p3783
aVSci-Fi
p3784
asVThe Darkest Hour
p3785
(lp3786
VAction
p3787
aVDrama
p3788
aVHorror
p3789
aVSci-Fi
p3790
aVThriller
p3791
asVBig Hero 6
p3792
(lp3793
VAnimation
p3794
aVAction
p3795
aVAdventure
p3796
aVComedy
p3797
aVFamily
p3798
aVSci-Fi
p3799
asVOur Idiot Brother
p3800
(lp3801
VComedy
p3802
aVDrama
p3803
asVAt Middleton
p3804
(lp3805
VComedy
p3806
aVRomance
p3807
asVThe Three Musketeers (2011)
p3808
(lp3809
VAction
p3810
aVAdventure
p3811
aVRomance
p3812
asVThe Ultimate Life
p3813
(lp3814
VDrama
p3815
aVRomance
p3816
asVThe Grand Seduction
p3817
(lp3818
VComedy
p3819
asVDom Hemingway
p3820
(lp3821
VComedy
p3822
aVCrime
p3823
aVDrama
p3824
asVBlue Like Jazz
p3825
(lp3826
VComedy
p3827
aVDrama
p3828
asVProject Nim
p3829
(lp3830
VDocumentary
p3831
asVVeronica Mars
p3832
(lp3833
VCrime
p3834
aVDrama
p3835
aVMystery
p3836
asVChappie
p3837
(lp3838
VAction
p3839
aVCrime
p3840
aVSci-Fi
p3841
aVThriller
p3842
asVFifty Shades of Grey
p3843
(lp3844
VDrama
p3845
aVRomance
p3846
asVBroken City
p3847
(lp3848
VCrime
p3849
aVDrama
p3850
aVThriller
p3851
asVThe Bay
p3852
(lp3853
VHorror
p3854
aVSci-Fi
p3855
aVThriller
p3856
asVThe Heart Specialist
p3857
(lp3858
VComedy
p3859
aVDrama
p3860
asVThe Wolf of Wall Street
p3861
(lp3862
VBiography
p3863
aVComedy
p3864
aVCrime
p3865
aVDrama
p3866
asVMeet the Mormons
p3867
(lp3868
VDocumentary
p3869
asVRace 2
p3870
(lp3871
VAction
p3872
aVCrime
p3873
aVDrama
p3874
aVThriller
p3875
asVBlack Souls (Anime Nere)
p3876
(lp3877
VDrama
p3878
asVVettai
p3879
(lp3880
VAction
p3881
asVThanks for Sharing
p3882
(lp3883
VComedy
p3884
aVDrama
p3885
asVGrassroots
p3886
(lp3887
VComedy
p3888
aVDrama
p3889
asVSavannah
p3890
(lp3891
VDrama
p3892
asVThe Good Guy
p3893
(lp3894
VComedy
p3895
aVRomance
p3896
asVAfrican Cats
p3897
(lp3898
VDocumentary
p3899
aVAdventure
p3900
asVArt of the Steal
p3901
g203
sVSabotage (2014)
p3902
(lp3903
VAction
p3904
aVCrime
p3905
aVDrama
p3906
aVThriller
p3907
asVChance Pe Dance
p3908
(lp3909
VComedy
p3910
aVDrama
p3911
aVRomance
p3912
asVHorrible Bosses 2
p3913
(lp3914
VComedy
p3915
aVCrime
p3916
asV10 Years
p3917
(lp3918
VComedy
p3919
aVDrama
p3920
aVRomance
p3921
asVWhere Are You Taking Me?
p3922
(lp3923
VDocumentary
p3924
asVMud
p3925
(lp3926
VDrama
p3927
asV13 Sins
p3928
(lp3929
VComedy
p3930
aVHorror
p3931
aVThriller
p3932
asVStill Alice
p3933
(lp3934
VDrama
p3935
asVIf I Stay
p3936
(lp3937
VDrama
p3938
aVMusic
p3939
aVRomance
p3940
asVMillion Dollar Arm
p3941
(lp3942
VBiography
p3943
aVDrama
p3944
aVSport
p3945
asVThe Great Gatsby (2013)
p3946
(lp3947
VDrama
p3948
aVRomance
p3949
asVContagion
p3950
(lp3951
VDrama
p3952
aVSci-Fi
p3953
aVThriller
p3954
asVTinker, Tailor, Soldier, Spy
p3955
(lp3956
VDrama
p3957
aVThriller
p3958
asVFlipped
p3959
(lp3960
VComedy
p3961
aVDrama
p3962
aVRomance
p3963
asVIt's Kind of a Funny Story
p3964
(lp3965
VComedy
p3966
aVDrama
p3967
aVRomance
p3968
asVMax et les Ferrailleurs (Max and the Junkmen) (2012 re-release)
p3969
g59
sVDespicable Me
p3970
(lp3971
VAnimation
p3972
aVComedy
p3973
aVFamily
p3974
asVJurassic World
p3975
(lp3976
VAction
p3977
aVAdventure
p3978
aVSci-Fi
p3979
aVThriller
p3980
asVCrazy on the Outside
p3981
(lp3982
VComedy
p3983
aVCrime
p3984
asVKhoobsurat
p3985
(lp3986
VComedy
p3987
aVRomance
p3988
asV35 and Ticking
p3989
(lp3990
VComedy
p3991
aVRomance
p3992
asVBlack or White
p3993
(lp3994
VDrama
p3995
asVThe Last 5 Years
p3996
(lp3997
VComedy
p3998
aVDrama
p3999
aVMusical
p4000
aVRomance
p4001
asVPastorela
p4002
(lp4003
VComedy
p4004
aVFantasy
p4005
asVA Nightmare on Elm Street (2010)
p4006
(lp4007
VHorror
p4008
aVMystery
p4009
aVThriller
p4010
asVFrankenweenie
p4011
(lp4012
VAnimation
p4013
aVComedy
p4014
aVFamily
p4015
aVHorror
p4016
aVSci-Fi
p4017
asVBuen Dia, Ramon
p4018
(lp4019
VDrama
p4020
asVLUV
p4021
(lp4022
VCrime
p4023
aVDrama
p4024
asVHugo
p4025
(lp4026
VAdventure
p4027
aVDrama
p4028
aVFamily
p4029
aVMystery
p4030
asV2 States
p4031
(lp4032
VComedy
p4033
aVDrama
p4034
aVRomance
p4035
asVResurrect Dead: The Mystery of the Toynbee Tiles
p4036
(lp4037
VDocumentary
p4038
asVTake Me Home Tonight
p4039
(lp4040
VComedy
p4041
aVDrama
p4042
aVRomance
p4043
asVSelma
p4044
(lp4045
VBiography
p4046
aVDrama
p4047
aVHistory
p4048
asVBlackhat
p4049
(lp4050
VAction
p4051
aVCrime
p4052
aVDrama
p4053
aVMystery
p4054
aVThriller
p4055
asVTees Maar Khan
p4056
(lp4057
VComedy
p4058
aVCrime
p4059
aVDrama
p4060
asVThe Hobbit: An Unexpected Journey
p4061
(lp4062
VAdventure
p4063
aVFantasy
p4064
asVWaiting for "Superman"
p4065
(lp4066
VDocumentary
p4067
asVThe Loft
p4068
(lp4069
VMystery
p4070
aVRomance
p4071
aVThriller
p4072
asVBefore Midnight
p4073
(lp4074
VDrama
p4075
aVRomance
p4076
asVSanctum
p4077
(lp4078
VAdventure
p4079
aVDrama
p4080
aVThriller
p4081
asVThe Tree of Life
p4082
(lp4083
VDrama
p4084
aVFantasy
p4085
asVArthur Christmas
p4086
(lp4087
VAnimation
p4088
aVComedy
p4089
aVDrama
p4090
aVFamily
p4091
asVRio 2
p4092
(lp4093
VAnimation
p4094
aVAdventure
p4095
aVComedy
p4096
aVFamily
p4097
aVMusical
p4098
asVThe Black Waters of Echo's Pond
p4099
(lp4100
VFantasy
p4101
aVHorror
p4102
aVThriller
p4103
asVMeet Monica Velour
p4104
(lp4105
VComedy
p4106
aVDrama
p4107
aVRomance
p4108
asVX-Men: Days of Future Past
p4109
(lp4110
VAction
p4111
aVAdventure
p4112
aVSci-Fi
p4113
aVThriller
p4114
asVThe Kids Are All Right
p4115
(lp4116
VComedy
p4117
aVDrama
p4118
asVZokkomon
p4119
(lp4120
VAction
p4121
aVAdventure
p4122
aVDrama
p4123
aVFantasy
p4124
asVMr. X
p4125
(lp4126
VSci-Fi
p4127
aVThriller
p4128
asVParental Guidance
p4129
(lp4130
VComedy
p4131
aVFamily
p4132
asVThey Come to America
p4133
(lp4134
VDocumentary
p4135
asVTyler Perry's Good Deeds
p4136
(lp4137
VComedy
p4138
aVDrama
p4139
aVRomance
p4140
asVLovely Molly
p4141
(lp4142
VDrama
p4143
aVHorror
p4144
asVAct of Valor
p4145
(lp4146
VAction
p4147
aVThriller
p4148
aVWar
p4149
asVExtraordinary Measures
p4150
(lp4151
VDrama
p4152
asVInchAllah (U.S. only)
p4153
g203
sVEnd of Watch
p4154
(lp4155
VCrime
p4156
aVDrama
p4157
aVThriller
p4158
asVThe Company Men
p4159
(lp4160
VDrama
p4161
asVThe Big Wedding
p4162
(lp4163
VComedy
p4164
asVRaiders of the Lost Ark (IMAX)
p4165
(lp4166
VAction
p4167
aVAdventure
p4168
asVThe Wind Rises
p4169
(lp4170
VAnimation
p4171
aVBiography
p4172
aVDrama
p4173
aVRomance
p4174
aVWar
p4175
asVThe Warrior's Way
p4176
(lp4177
VAction
p4178
aVFantasy
p4179
aVWestern
p4180
asVLe Amiche (re-issue)
p4181
g59
sVAgneepath
p4182
(lp4183
VAction
p4184
aVCrime
p4185
aVDrama
p4186
asVCloudy with a Chance of Meatballs 2
p4187
(lp4188
VAnimation
p4189
aVComedy
p4190
aVFamily
p4191
aVFantasy
p4192
asVThe Way Back
p4193
(lp4194
VComedy
p4195
aVDrama
p4196
asVHoliday (2014)
p4197
(lp4198
VAction
p4199
aVDrama
p4200
aVMystery
p4201
aVRomance
p4202
aVThriller
p4203
asVMommy
p4204
(lp4205
VDrama
p4206
asVNot Today
p4207
(lp4208
VDrama
p4209
asVWar of the Buttons (2012)
p4210
(lp4211
VAdventure
p4212
aVDrama
p4213
aVFamily
p4214
asVBarfi!
p4215
(lp4216
VAdventure
p4217
aVComedy
p4218
aVDrama
p4219
aVRomance
p4220
asVThe Lazarus Effect
p4221
(lp4222
VHorror
p4223
aVThriller
p4224
asVFar from the Madding Crowd
p4225
(lp4226
VDrama
p4227
asVEscobar: Paradise Lost
p4228
(lp4229
VRomance
p4230
aVThriller
p4231
asVGone Girl
p4232
(lp4233
VDrama
p4234
aVMystery
p4235
aVThriller
p4236
asVCamp (2013)
p4237
(lp4238
VComedy
p4239
aVDrama
p4240
asVAugust: Osage County
p4241
(lp4242
VDrama
p4243
asVBabies
p4244
(lp4245
VDocumentary
p4246
asVThe Quiet Ones
p4247
(lp4248
VHorror
p4249
asVTooth Fairy
p4250
(lp4251
VComedy
p4252
aVFamily
p4253
aVFantasy
p4254
asVMy Way (2012)
p4255
(lp4256
VDocumentary
p4257
aVAdventure
p4258
aVDrama
p4259
aVMusic
p4260
asVThe Three Stooges
p4261
(lp4262
VComedy
p4263
asVAmerican Sniper
p4264
(lp4265
VAction
p4266
aVBiography
p4267
aVDrama
p4268
aVHistory
p4269
aVThriller
p4270
aVWar
p4271
asVBlack Nativity
p4272
(lp4273
VDrama
p4274
aVMusical
p4275
asVBiutiful
p4276
(lp4277
VDrama
p4278
asVIn a World
p4279
(lp4280
VTalk-Show
p4281
asVAccident
p4282
(lp4283
VDrama
p4284
aVCrime
p4285
asVMiral
p4286
(lp4287
VDrama
p4288
asVThe Interview (2014)
p4289
(lp4290
VAction
p4291
aVComedy
p4292
asVLabor Day
p4293
(lp4294
VDrama
p4295
asVThe Hobbit: The Desolation of Smaug
p4296
(lp4297
VAdventure
p4298
aVFantasy
p4299
asVSomething Borrowed
p4300
(lp4301
VComedy
p4302
aVDrama
p4303
aVRomance
p4304
asVBeyond the Lights
p4305
(lp4306
VDrama
p4307
aVMusic
p4308
asVThe Drop
p4309
(lp4310
VCrime
p4311
aVDrama
p4312
asVThe Cabin in the Woods
p4313
(lp4314
VHorror
p4315
aVMystery
p4316
aVThriller
p4317
asVA Better Life
p4318
(lp4319
VDrama
p4320
asV44 Inch Chest
p4321
(lp4322
VCrime
p4323
aVDrama
p4324
asVJane Eyre
p4325
(lp4326
VDrama
p4327
aVRomance
p4328
asVLittle Boy
p4329
(lp4330
VComedy
p4331
aVDrama
p4332
aVWar
p4333
asVPearl Jam Twenty
p4334
(lp4335
VDocumentary
p4336
aVHistory
p4337
aVMusic
p4338
asVSweethearts of the Prison Rodeo
p4339
(lp4340
VDocumentary
p4341
asVJersey Boys
p4342
(lp4343
VBiography
p4344
aVDrama
p4345
aVMusic
p4346
asVMama
p4347
(lp4348
VHorror
p4349
asVThe Polar Express (2011 re-issue)
p4350
g59
sVPredestination
p4351
(lp4352
VDrama
p4353
aVMystery
p4354
aVSci-Fi
p4355
aVThriller
p4356
asVThe Place Beyond the Pines
p4357
(lp4358
VCrime
p4359
aVDrama
p4360
aVThriller
p4361
asVRan (2010 re-issue)
p4362
g59
sVThe Iron Lady
p4363
(lp4364
VBiography
p4365
aVDrama
p4366
aVHistory
p4367
asVPopulaire
p4368
(lp4369
VComedy
p4370
aVRomance
p4371
aVSport
p4372
asVAnna Karenina
p4373
(lp4374
VDrama
p4375
aVRomance
p4376
asVHotel Normandy
p4377
(lp4378
VComedy
p4379
aVRomance
p4380
asVAnchorman 2 (R-Rated Extended Cut)
p4381
g203
sVFrank Miller's Sin City: A Dame to Kill For
p4382
(lp4383
VCrime
p4384
aVThriller
p4385
asVA Pig Across Paris (2013 re-issue)
p4386
g203
sV3 Hearts
p4387
(lp4388
VDrama
p4389
aVRomance
p4390
asVWater for Elephants
p4391
(lp4392
VDrama
p4393
aVRomance
p4394
asVHaider
p4395
(lp4396
VCrime
p4397
aVDrama
p4398
aVRomance
p4399
aVThriller
p4400
asVLet's Be Cops
p4401
(lp4402
VComedy
p4403
asVRedemption (2013)
p4404
(lp4405
VAction
p4406
aVCrime
p4407
aVDrama
p4408
asVThe Full Picture
p4409
(lp4410
VComedy
p4411
asVKites
p4412
(lp4413
VAction
p4414
aVDrama
p4415
aVRomance
p4416
aVThriller
p4417
asVHigh Tech, Low Life
p4418
(lp4419
VDocumentary
p4420
aVDrama
p4421
aVHistory
p4422
aVNews
p4423
asVP.K.
p4424
(lp4425
VComedy
p4426
aVDrama
p4427
aVRomance
p4428
aVSci-Fi
p4429
asVThe Spectacular Now
p4430
(lp4431
VComedy
p4432
aVDrama
p4433
aVRomance
p4434
asVBereavement
p4435
(lp4436
VCrime
p4437
aVHorror
p4438
aVThriller
p4439
asVMorning Glory
p4440
(lp4441
VComedy
p4442
aVDrama
p4443
aVRomance
p4444
asVBreath Made Visible
p4445
(lp4446
VDocumentary
p4447
asVFed Up
p4448
(lp4449
VDocumentary
p4450
asVThe Hunting Ground
p4451
(lp4452
VDocumentary
p4453
asVThe Best Man Holiday
p4454
(lp4455
VComedy
p4456
aVDrama
p4457
asVLast Flight of the Champion
p4458
(lp4459
VAnimation
p4460
aVComedy
p4461
aVFamily
p4462
aVSci-Fi
p4463
asVTrace Amounts
p4464
(lp4465
VDocumentary
p4466
aVAdventure
p4467
aVDrama
p4468
aVHistory
p4469
asVClash of the Titans (2010)
p4470
(lp4471
VAction
p4472
aVAdventure
p4473
aVFantasy
p4474
asVAs It Is In Heaven
p4475
(lp4476
VComedy
p4477
aVDrama
p4478
aVMusic
p4479
aVRomance
p4480
asVJust Go With It
p4481
(lp4482
VComedy
p4483
aVRomance
p4484
asVThe Second Best Exotic Marigold Hotel
p4485
(lp4486
VComedy
p4487
aVDrama
p4488
asVWa-shoku: Beyond Sushi
p4489
(lp4490
VDocumentary
p4491
aVBiography
p4492
aVFamily
p4493
aVHistory
p4494
asVMars Needs Moms
p4495
(lp4496
VAnimation
p4497
aVAction
p4498
aVAdventure
p4499
aVComedy
p4500
aVFamily
p4501
aVSci-Fi
p4502
asVEasy Money (2012)
p4503
(lp4504
VShort
p4505
aVComedy
p4506
aVDrama
p4507
aVFamily
p4508
asVTyler Perry Presents Peeples
p4509
g203
sVGirls Against Boys
p4510
(lp4511
VDrama
p4512
aVHorror
p4513
aVThriller
p4514
asVJust Before I Go
p4515
(lp4516
VComedy
p4517
aVDrama
p4518
asVKites: The Remix
p4519
(lp4520
VAction
p4521
aVDrama
p4522
aVRomance
p4523
aVThriller
p4524
asVHope Springs
p4525
(lp4526
VComedy
p4527
aVDrama
p4528
aVRomance
p4529
asVThe Book Thief
p4530
(lp4531
VDrama
p4532
aVWar
p4533
asVThunder Soul
p4534
(lp4535
VDocumentary
p4536
aVMusic
p4537
asVThe Bourne Legacy
p4538
(lp4539
VAction
p4540
aVAdventure
p4541
aVMystery
p4542
aVThriller
p4543
asVThe Romantics
p4544
(lp4545
VComedy
p4546
aVDrama
p4547
aVRomance
p4548
asVLucky (2011)
p4549
(lp4550
VComedy
p4551
asVMegamind
p4552
(lp4553
VAnimation
p4554
aVAction
p4555
aVComedy
p4556
aVFamily
p4557
aVSci-Fi
p4558
asVThe Help
p4559
(lp4560
VDrama
p4561
asVSucker Punch
p4562
(lp4563
VAction
p4564
aVAdventure
p4565
aVFantasy
p4566
asVThe Square
p4567
(lp4568
VCrime
p4569
aVDrama
p4570
aVThriller
p4571
asVCourageous
p4572
(lp4573
VDrama
p4574
asVThe Next Three Days
p4575
(lp4576
VCrime
p4577
aVDrama
p4578
aVRomance
p4579
aVThriller
p4580
asVPublic Speaking
p4581
(lp4582
VDocumentary
p4583
asVChernobyl Diaries
p4584
(lp4585
VHorror
p4586
aVMystery
p4587
aVThriller
p4588
asVThe Joneses
p4589
(lp4590
VComedy
p4591
aVDrama
p4592
asVThe Internship
p4593
(lp4594
VComedy
p4595
asVFalcon Rising
p4596
(lp4597
VAction
p4598
aVAdventure
p4599
asVPeepli Live
p4600
(lp4601
VHistory
p4602
aVTalk-Show
p4603
asVRaavan
p4604
(lp4605
VAction
p4606
aVAdventure
p4607
aVCrime
p4608
aVDrama
p4609
aVThriller
p4610
asVTanner Hall
p4611
(lp4612
VDrama
p4613
asVA Little Chaos
p4614
(lp4615
VComedy
p4616
aVDrama
p4617
aVRomance
p4618
asVThe A-Team
p4619
(lp4620
VAction
p4621
aVAdventure
p4622
aVComedy
p4623
aVCrime
p4624
aVThriller
p4625
asVThe Purge: Anarchy
p4626
(lp4627
VAction
p4628
aVHorror
p4629
aVSci-Fi
p4630
aVThriller
p4631
asVUnderworld Awakening
p4632
(lp4633
VAction
p4634
aVFantasy
p4635
aVHorror
p4636
asVThor: The Dark World
p4637
(lp4638
VAction
p4639
aVAdventure
p4640
aVFantasy
p4641
asV50/50
p4642
(lp4643
VComedy
p4644
aVDrama
p4645
asVBattle: Los Angeles
p4646
(lp4647
VAction
p4648
aVSci-Fi
p4649
asVVirginia
p4650
(lp4651
VHorror
p4652
aVThriller
p4653
asVMia and the Migoo
p4654
(lp4655
VAnimation
p4656
aVFamily
p4657
asVInfliction
p4658
(lp4659
VHorror
p4660
asVThe Lone Ranger
p4661
(lp4662
VAction
p4663
aVAdventure
p4664
aVWestern
p4665
asVRosewater
p4666
(lp4667
VBiography
p4668
aVDrama
p4669
asVFinal Destination 5
p4670
(lp4671
VHorror
p4672
aVThriller
p4673
asVJackass 3-D
p4674
(lp4675
VDocumentary
p4676
aVAction
p4677
aVComedy
p4678
asVIn the Name of my Daughter
p4679
(lp4680
VDrama
p4681
asVJudy Moody and the NOT Bummer Summer
p4682
(lp4683
VComedy
p4684
aVFamily
p4685
asVOuija
p4686
(lp4687
VHorror
p4688
asVCars 2
p4689
(lp4690
VAnimation
p4691
aVAdventure
p4692
aVComedy
p4693
aVFamily
p4694
asVFaster
p4695
(lp4696
VAction
p4697
aVCrime
p4698
aVDrama
p4699
aVThriller
p4700
asVSong of the Sea
p4701
(lp4702
VAnimation
p4703
aVFamily
p4704
aVFantasy
p4705
asVThor
p4706
(lp4707
VAction
p4708
aVAdventure
p4709
aVFantasy
p4710
asVThe Dark Knight Rises
p4711
(lp4712
VAction
p4713
aVThriller
p4714
asVEscape From Planet Earth
p4715
(lp4716
VAnimation
p4717
aVAdventure
p4718
aVComedy
p4719
aVFamily
p4720
aVSci-Fi
p4721
asVI Hate Luv Storys
p4722
(lp4723
VComedy
p4724
aVDrama
p4725
aVRomance
p4726
asVDolphin Tale 2
p4727
(lp4728
VDrama
p4729
aVFamily
p4730
asVThe Sweeney
p4731
(lp4732
VAction
p4733
aVCrime
p4734
aVDrama
p4735
asVThe Hunger Games
p4736
(lp4737
VAdventure
p4738
aVSci-Fi
p4739
aVThriller
p4740
asVInside Llewyn Davis
p4741
(lp4742
VDrama
p4743
aVMusic
p4744
asVBeing Flynn
p4745
(lp4746
VDrama
p4747
asVOut in the Dark
p4748
(lp4749
VDrama
p4750
aVRomance
p4751
asVUdaan
p4752
(lp4753
VDrama
p4754
asVThe Collection
p4755
(lp4756
VHorror
p4757
aVThriller
p4758
asVJumping the Broom
p4759
(lp4760
VComedy
p4761
aVDrama
p4762
asVCantinflas
p4763
(lp4764
VBiography
p4765
aVComedy
p4766
aVDrama
p4767
aVRomance
p4768
asVThe Investigator
p4769
(lp4770
VDrama
p4771
aVFamily
p4772
aVSport
p4773
asVShark Night 3D
p4774
(lp4775
VHorror
p4776
aVThriller
p4777
asVThe Thing (2011)
p4778
(lp4779
VHorror
p4780
aVMystery
p4781
aVSci-Fi
p4782
aVThriller
p4783
asVArjun: The Warrior Prince
p4784
(lp4785
VAnimation
p4786
aVAction
p4787
aVAdventure
p4788
asVMIB 3
p4789
(lp4790
VComedy
p4791
asVThe Legend of Hercules
p4792
(lp4793
VAction
p4794
aVAdventure
p4795
aVFantasy
p4796
asVEvil Intent
p4797
(lp4798
VThriller
p4799
asVSeason of the Witch
p4800
(lp4801
VAction
p4802
aVAdventure
p4803
aVFantasy
p4804
asVRepentance
p4805
(lp4806
VDrama
p4807
aVHorror
p4808
aVThriller
p4809
asVThe Amazing Spider-Man 2
p4810
(lp4811
VAction
p4812
aVAdventure
p4813
aVFantasy
p4814
aVSci-Fi
p4815
asVJack and Jill
p4816
(lp4817
VComedy
p4818
asVTales from Earthsea
p4819
(lp4820
VAnimation
p4821
aVAdventure
p4822
aVFantasy
p4823
asVFrom Up on Poppy Hill
p4824
(lp4825
VAnimation
p4826
aVDrama
p4827
aVFamily
p4828
aVRomance
p4829
asVLucy
p4830
(lp4831
VAction
p4832
aVSci-Fi
p4833
aVThriller
p4834
asVThe Other Woman (2014)
p4835
(lp4836
VComedy
p4837
aVRomance
p4838
asVLittle White Lies
p4839
(lp4840
VComedy
p4841
aVDrama
p4842
asVThe Lord of the Rings: The Return of the King (2011 re-release)
p4843
g59
sVThe Polar Express (2012 re-issue)
p4844
g59
sVGodzilla: The Japanese Original
p4845
g203
sVRabbit Hole
p4846
(lp4847
VDrama
p4848
asVDon 2
p4849
(lp4850
VAction
p4851
aVCrime
p4852
aVDrama
p4853
aVMystery
p4854
aVThriller
p4855
asVThe Giver
p4856
(lp4857
VAction
p4858
aVAdventure
p4859
aVDrama
p4860
aVSci-Fi
p4861
asVChocolate City
p4862
(lp4863
VDrama
p4864
asVParanormal Activity 3
p4865
(lp4866
VHorror
p4867
asVBears
p4868
(lp4869
VAnimation
p4870
aVAdventure
p4871
aVFamily
p4872
aVFantasy
p4873
asVWe Bought a Zoo
p4874
(lp4875
VComedy
p4876
aVDrama
p4877
aVFamily
p4878
asVAlex Cross
p4879
(lp4880
VAction
p4881
aVCrime
p4882
aVMystery
p4883
aVThriller
p4884
asVThe Woman in Black
p4885
(lp4886
VDrama
p4887
aVHorror
p4888
aVThriller
p4889
asVCosmopolis
p4890
(lp4891
VDrama
p4892
aVThriller
p4893
asVMugamoodi
p4894
(lp4895
VAction
p4896
aVDrama
p4897
asVAll's Faire in Love
p4898
(lp4899
VComedy
p4900
asVLottery Ticket
p4901
(lp4902
VComedy
p4903
asVSeeking Justice
p4904
(lp4905
VAction
p4906
aVDrama
p4907
aVThriller
p4908
asVThe Gambler
p4909
(lp4910
VCrime
p4911
aVDrama
p4912
aVThriller
p4913
asVTexas Chainsaw 3D
p4914
(lp4915
VHorror
p4916
aVThriller
p4917
asVOlympus Has Fallen
p4918
(lp4919
VAction
p4920
aVThriller
p4921
asVDeliver Us From Evil
p4922
(lp4923
VHorror
p4924
aVThriller
p4925
asVDigging Up the Marrow
p4926
(lp4927
VBiography
p4928
aVDrama
p4929
aVFantasy
p4930
aVHorror
p4931
aVMystery
p4932
aVThriller
p4933
asVWhat If (2014)
p4934
(lp4935
VShort
p4936
aVComedy
p4937
aVRomance
p4938
asVThe Equalizer
p4939
(lp4940
VAction
p4941
aVCrime
p4942
aVThriller
p4943
asVArthur (2011)
p4944
(lp4945
VComedy
p4946
aVRomance
p4947
asVThe Skeleton Twins
p4948
(lp4949
VComedy
p4950
aVDrama
p4951
asVEx Machina
p4952
(lp4953
VDrama
p4954
aVSci-Fi
p4955
asVThe Tale of The Princess Kaguya
p4956
(lp4957
VAnimation
p4958
aVDrama
p4959
aVFantasy
p4960
asVThe Way, Way Back
p4961
(lp4962
VComedy
p4963
aVDrama
p4964
asVFrom Prada to Nada
p4965
(lp4966
VComedy
p4967
aVDrama
p4968
aVRomance
p4969
asVTrue Grit
p4970
(lp4971
VAdventure
p4972
aVDrama
p4973
aVWestern
p4974
asVFast & Furious 6
p4975
(lp4976
VAction
p4977
aVCrime
p4978
aVThriller
p4979
asVMy Soul to Take
p4980
(lp4981
VHorror
p4982
aVMystery
p4983
aVThriller
p4984
asVRemember Me
p4985
(lp4986
VDrama
p4987
aVRomance
p4988
asVScott Pilgrim vs. the World
p4989
(lp4990
VAction
p4991
aVComedy
p4992
aVFantasy
p4993
aVRomance
p4994
asVLeft Behind (2014)
p4995
(lp4996
VAction
p4997
aVSci-Fi
p4998
aVThriller
p4999
asVEva
p5000
(lp5001
VDrama
p5002
asVPitch Perfect
p5003
(lp5004
VComedy
p5005
aVMusic
p5006
aVRomance
p5007
asVThe Son of No One
p5008
(lp5009
VCrime
p5010
aVDrama
p5011
aVThriller
p5012
asVDead Man Down
p5013
(lp5014
VAction
p5015
aVCrime
p5016
aVDrama
p5017
aVThriller
p5018
asVThe Signal (2014)
p5019
(lp5020
VSci-Fi
p5021
aVThriller
p5022
asVThe Wolfman
p5023
(lp5024
VDrama
p5025
aVHorror
p5026
aVThriller
p5027
asVJimi: All Is By My Side
p5028
(lp5029
VBiography
p5030
aVDrama
p5031
aVMusic
p5032
asVBucky Larson: Born to Be a Star
p5033
(lp5034
VComedy
p5035
asVEl Sicario, Room 164
p5036
(lp5037
VDocumentary
p5038
asVLe Rayon Vert (Summer)
p5039
(lp5040
VDrama
p5041
aVRomance
p5042
asVBuried
p5043
(lp5044
VDrama
p5045
aVMystery
p5046
aVThriller
p5047
asVThe Karate Kid
p5048
(lp5049
VAction
p5050
aVDrama
p5051
aVFamily
p5052
aVSport
p5053
asVGhostbusters (30th Anniversary re-release)
p5054
g203
sVThe 100-Year Old Man Who Climbed Out the Window and Disappeared
p5055
(lp5056
VAdventure
p5057
aVComedy
p5058
asVParanormal Activity: The Marked Ones
p5059
(lp5060
VHorror
p5061
aVThriller
p5062
asVWild (2014)
p5063
(lp5064
VAdventure
p5065
aVBiography
p5066
aVDrama
p5067
asVWhat's Your Number?
p5068
(lp5069
VComedy
p5070
aVRomance
p5071
asVThe Monuments Men
p5072
(lp5073
VDrama
p5074
aVWar
p5075
asVThis Is 40
p5076
(lp5077
VComedy
p5078
asVBeautiful Creatures (2013)
p5079
(lp5080
VDrama
p5081
aVFantasy
p5082
aVRomance
p5083
asVHumpty Sharma Ki Dulhania
p5084
(lp5085
VComedy
p5086
aVDrama
p5087
aVRomance
p5088
asVPoltergeist (2015)
p5089
(lp5090
VHorror
p5091
aVThriller
p5092
asVI Don't Know How She Does It
p5093
(lp5094
VComedy
p5095
asVA Haunted House 2
p5096
(lp5097
VComedy
p5098
aVHorror
p5099
asVMachine Gun Preacher
p5100
(lp5101
VAction
p5102
aVBiography
p5103
aVCrime
p5104
aVDrama
p5105
asVThe Adventures of Tintin
p5106
(lp5107
VAnimation
p5108
aVAction
p5109
aVAdventure
p5110
aVFamily
p5111
aVMystery
p5112
asVPersecuted
p5113
(lp5114
VAction
p5115
aVDrama
p5116
aVMystery
p5117
aVThriller
p5118
asVDhoom 3
p5119
(lp5120
VAction
p5121
aVCrime
p5122
aVThriller
p5123
asVHereafter
p5124
(lp5125
VDrama
p5126
aVFantasy
p5127
asVThe Lucky One
p5128
(lp5129
VDrama
p5130
aVRomance
p5131
asVConan the Barbarian (2011)
p5132
(lp5133
VAction
p5134
aVAdventure
p5135
aVFantasy
p5136
asVSpy
p5137
(lp5138
VAction
p5139
aVComedy
p5140
aVCrime
p5141
asV12 Years a Slave
p5142
(lp5143
VBiography
p5144
aVDrama
p5145
aVHistory
p5146
asVTron Legacy
p5147
(lp5148
VAction
p5149
aVAdventure
p5150
aVFantasy
p5151
aVSci-Fi
p5152
asVSoul Surfer
p5153
(lp5154
VBiography
p5155
aVDrama
p5156
aVSport
p5157
asVZookeeper
p5158
(lp5159
VComedy
p5160
aVFamily
p5161
aVRomance
p5162
asVMuran
p5163
(lp5164
VAction
p5165
aVThriller
p5166
asVThe Fault in our Stars
p5167
(lp5168
VDrama
p5169
aVRomance
p5170
asVWall Street: Money Never Sleeps
p5171
(lp5172
VDrama
p5173
asVKick-Ass 2
p5174
(lp5175
VAction
p5176
aVComedy
p5177
aVCrime
p5178
asVAvatar: Special Edition
p5179
(lp5180
VAction
p5181
aVAdventure
p5182
aVFantasy
p5183
aVSci-Fi
p5184
asVDhobi Ghat (Mumbai Diaries)
p5185
(lp5186
VDrama
p5187
asVFilmistaan
p5188
(lp5189
VComedy
p5190
asVAlpha and Omega
p5191
(lp5192
VAnimation
p5193
aVAdventure
p5194
aVComedy
p5195
aVFamily
p5196
aVRomance
p5197
asV2016 Obama's America
p5198
(lp5199
VDocumentary
p5200
asVSpare Parts
p5201
(lp5202
VDrama
p5203
asVThe Age of Adaline
p5204
(lp5205
VDrama
p5206
aVRomance
p5207
asVLove At First Fight
p5208
(lp5209
VComedy
p5210
aVRomance
p5211
asVThe Theory of Everything
p5212
(lp5213
VBiography
p5214
aVDrama
p5215
aVRomance
p5216
asVRunner Runner
p5217
(lp5218
VCrime
p5219
aVThriller
p5220
asVHere Comes the Boom
p5221
(lp5222
VAction
p5223
aVComedy
p5224
aVSport
p5225
asVBlue Valentine
p5226
(lp5227
VDrama
p5228
aVRomance
p5229
asVPaan Singh Tomar
p5230
(lp5231
VAction
p5232
aVBiography
p5233
aVCrime
p5234
aVSport
p5235
aVThriller
p5236
asVGrand Illusion (2012 re-release)
p5237
g59
sVFriends with Kids
p5238
(lp5239
VComedy
p5240
aVDrama
p5241
aVRomance
p5242
asVPiranha 3D
p5243
(lp5244
VComedy
p5245
aVHorror
p5246
asVVampire Academy
p5247
(lp5248
VAction
p5249
aVComedy
p5250
aVFantasy
p5251
aVHorror
p5252
aVMystery
p5253
asVTangled
p5254
(lp5255
VAnimation
p5256
aVComedy
p5257
aVFamily
p5258
aVFantasy
p5259
aVMusical
p5260
aVRomance
p5261
asVBang Bang
p5262
(lp5263
VAction
p5264
aVAdventure
p5265
aVComedy
p5266
aVRomance
p5267
aVThriller
p5268
asVJack Ryan: Shadow Recruit
p5269
(lp5270
VAction
p5271
aVThriller
p5272
asVHappyThankYouMorePlease
p5273
(lp5274
VComedy
p5275
aVDrama
p5276
aVRomance
p5277
asVWhite Wedding
p5278
(lp5279
VDrama
p5280
aVRomance
p5281
asVOur Man in Tehran
p5282
(lp5283
VDocumentary
p5284
aVHistory
p5285
asVR.I.P.D.
p5286
(lp5287
VAction
p5288
aVComedy
p5289
aVSci-Fi
p5290
asVAtlas Shrugged: Part II
p5291
(lp5292
VDrama
p5293
aVMystery
p5294
aVSci-Fi
p5295
asVGnomeo and Juliet
p5296
(lp5297
VAnimation
p5298
aVComedy
p5299
aVTalk-Show
p5300
asVI Am Ali
p5301
(lp5302
VDocumentary
p5303
aVBiography
p5304
aVSport
p5305
asVManuscripts Don't Burn
p5306
(lp5307
VDrama
p5308
asVThe Divergent Series: Insurgent
p5309
(lp5310
VAdventure
p5311
aVSci-Fi
p5312
aVThriller
p5313
asVCaptain Phillips
p5314
(lp5315
VBiography
p5316
aVDrama
p5317
aVThriller
p5318
asVJe T'aime, Je T'aime (2014 re-issue)
p5319
g203
sVNever Let Me Go
p5320
(lp5321
VDrama
p5322
aVRomance
p5323
aVSci-Fi
p5324
asVWinter's Bone
p5325
(lp5326
VDrama
p5327
asVCool It
p5328
(lp5329
VDocumentary
p5330
asVThe Last Day of August
p5331
(lp5332
VDrama
p5333
asVSaving Mr. Banks
p5334
(lp5335
VBiography
p5336
aVComedy
p5337
aVDrama
p5338
aVHistory
p5339
aVMusic
p5340
asVThe Package (2013)
p5341
(lp5342
VShort
p5343
aVCrime
p5344
asVThe Gallows
p5345
(lp5346
VHorror
p5347
aVThriller
p5348
asVStrangerland
p5349
(lp5350
VDrama
p5351
aVThriller
p5352
asVCesar Chavez
p5353
(lp5354
VBiography
p5355
asVInto the Woods
p5356
(lp5357
VAdventure
p5358
aVFantasy
p5359
aVMusical
p5360
asVTyler Perry's A Madea Christmas
p5361
(lp5362
VComedy
p5363
aVDrama
p5364
asVThe World's End
p5365
(lp5366
VAction
p5367
aVComedy
p5368
aVSci-Fi
p5369
asVSeventh Son
p5370
(lp5371
VAction
p5372
aVAdventure
p5373
aVFantasy
p5374
asVThe Obama Effect
p5375
(lp5376
VComedy
p5377
aVDrama
p5378
asVAlvin and the Chipmunks: Chipwrecked
p5379
(lp5380
VAnimation
p5381
aVAdventure
p5382
aVComedy
p5383
aVFamily
p5384
aVFantasy
p5385
aVMusic
p5386
asVThe Secret World of Arrietty
p5387
(lp5388
VAnimation
p5389
aVAdventure
p5390
aVFamily
p5391
aVFantasy
p5392
asVThe Players
p5393
(lp5394
VComedy
p5395
asVThe Afterlight
p5396
(lp5397
VDrama
p5398
asVWoman in Gold
p5399
(lp5400
VDrama
p5401
asVTyler Perry's Why Did I Get Married Too?
p5402
(lp5403
VComedy
p5404
aVDrama
p5405
aVRomance
p5406
asVJohnny English Reborn
p5407
(lp5408
VAction
p5409
aVAdventure
p5410
aVComedy
p5411
aVCrime
p5412
aVDrama
p5413
asVThe Worst Movie EVER!
p5414
(lp5415
VAction
p5416
aVComedy
p5417
aVMusical
p5418
aVSci-Fi
p5419
asVMadagascar 3: Europe's Most Wanted
p5420
(lp5421
VAnimation
p5422
aVAdventure
p5423
aVComedy
p5424
aVFamily
p5425
asVMy Week with Marilyn
p5426
(lp5427
VBiography
p5428
aVDrama
p5429
asVThe Bounty Hunter
p5430
(lp5431
VAction
p5432
aVComedy
p5433
aVRomance
p5434
asVBorn to Be Wild (IMAX)
p5435
(lp5436
VDocumentary
p5437
aVShort
p5438
aVAdventure
p5439
asVFury (2014)
p5440
(lp5441
VAction
p5442
aVDrama
p5443
aVWar
p5444
asVFrozen (2010)
p5445
(lp5446
VDrama
p5447
aVThriller
p5448
asVRobin Hood
p5449
(lp5450
VAction
p5451
aVAdventure
p5452
aVDrama
p5453
aVHistory
p5454
asVHimmatwala
p5455
(lp5456
VAction
p5457
aVComedy
p5458
asVDinner for Schmucks
p5459
(lp5460
VComedy
p5461
asVRiddick
p5462
(lp5463
VAction
p5464
aVSci-Fi
p5465
aVThriller
p5466
asVNitro Circus the Movie 3D
p5467
(lp5468
VDocumentary
p5469
aVAction
p5470
aVComedy
p5471
asVPort of Shadows (2012 re-issue)
p5472
g59
sVLe Petit Soldat (2013 re-release)
p5473
g203
sVHorrible Bosses
p5474
(lp5475
VComedy
p5476
aVCrime
p5477
asVSpring Breakers
p5478
(lp5479
VAction
p5480
aVCrime
p5481
aVDrama
p5482
asVHector And The Search For Happiness
p5483
(lp5484
VAdventure
p5485
aVComedy
p5486
aVDrama
p5487
asVThe Eagle
p5488
(lp5489
VAdventure
p5490
aVDrama
p5491
asVGrease (Sing-a-Long re-issue)
p5492
g59
sVLevel Five
p5493
(lp5494
VDocumentary
p5495
aVRomance
p5496
aVWar
p5497
asVThe To-Do List
p5498
(lp5499
VComedy
p5500
asVThe SpongeBob Movie: Sponge Out of Water
p5501
(lp5502
VAnimation
p5503
aVAdventure
p5504
aVComedy
p5505
aVFamily
p5506
asVStories We Tell
p5507
(lp5508
VDocumentary
p5509
asVUndefeated (2012)
p5510
(lp5511
VShort
p5512
aVDrama
p5513
asVCedar Rapids
p5514
(lp5515
VComedy
p5516
asVHorns
p5517
(lp5518
VDrama
p5519
aVFantasy
p5520
aVThriller
p5521
asVThe Green Hornet
p5522
(lp5523
VAction
p5524
aVComedy
p5525
aVCrime
p5526
aVSci-Fi
p5527
aVThriller
p5528
asVNightcrawler
p5529
(lp5530
VAction
p5531
aVCrime
p5532
aVMystery
p5533
aVThriller
p5534
asVStrangers Online
p5535
(lp5536
VDrama
p5537
aVThriller
p5538
asVJonah Hex
p5539
(lp5540
VAction
p5541
aVDrama
p5542
aVFantasy
p5543
aVThriller
p5544
aVWestern
p5545
asVMoonrise Kingdom
p5546
(lp5547
VAdventure
p5548
aVComedy
p5549
aVDrama
p5550
aVRomance
p5551
asVLost in Thailand
p5552
(lp5553
VAdventure
p5554
aVComedy
p5555
aVDrama
p5556
asVReturn to Nuke 'Em High Volume 1
p5557
(lp5558
VComedy
p5559
aVHorror
p5560
aVSci-Fi
p5561
asVThe Wedding Ringer
p5562
(lp5563
VComedy
p5564
aVRomance
p5565
asVKill the Messenger
p5566
(lp5567
VBiography
p5568
aVCrime
p5569
aVDrama
p5570
aVMystery
p5571
aVThriller
p5572
asVSecretariat
p5573
(lp5574
VDrama
p5575
aVFamily
p5576
aVHistory
p5577
aVSport
p5578
asVDum Maaro Dum
p5579
(lp5580
VAction
p5581
aVCrime
p5582
aVDrama
p5583
aVThriller
p5584
asVBully (2012)
p5585
(lp5586
VMusic
p5587
asVBeginners
p5588
(lp5589
VComedy
p5590
aVDrama
p5591
aVRomance
p5592
asVSomewhere
p5593
(lp5594
VComedy
p5595
aVDrama
p5596
asVBol Bachchan
p5597
(lp5598
VComedy
p5599
asVI Love You, Phillip Morris
p5600
(lp5601
VBiography
p5602
aVComedy
p5603
aVCrime
p5604
aVDrama
p5605
aVRomance
p5606
asVOne Small Hitch
p5607
(lp5608
VComedy
p5609
aVRomance
p5610
asVDue Date
p5611
(lp5612
VComedy
p5613
asVThis is Where I Leave You
p5614
(lp5615
VComedy
p5616
aVDrama
p5617
asV5 Days of War
p5618
(lp5619
VAction
p5620
aVDrama
p5621
aVWar
p5622
asVThe Last Stand
p5623
(lp5624
VAction
p5625
aVCrime
p5626
aVThriller
p5627
asVHot Tub Time Machine 2
p5628
(lp5629
VComedy
p5630
aVSci-Fi
p5631
asVCave of Forgotten Dreams
p5632
(lp5633
VDocumentary
p5634
aVHistory
p5635
asVIn Secret
p5636
(lp5637
VCrime
p5638
aVDrama
p5639
aVThriller
p5640
asVEntourage
p5641
(lp5642
VComedy
p5643
asVFinding Nemo (3D)
p5644
(lp5645
VAnimation
p5646
aVAdventure
p5647
aVComedy
p5648
aVFamily
p5649
asVPariah
p5650
(lp5651
VComedy
p5652
asVOne Day Pina Asked...
p5653
(lp5654
VDocumentary
p5655
aVMusic
p5656
asVOld Fashioned
p5657
(lp5658
VDrama
p5659
aVRomance
p5660
asVThe Judge
p5661
(lp5662
VCrime
p5663
aVDrama
p5664
asVStations of the Elevated
p5665
(lp5666
VDocumentary
p5667
asVWon't Back Down
p5668
(lp5669
VDrama
p5670
asVChillar Party
p5671
(lp5672
VComedy
p5673
aVDrama
p5674
aVFamily
p5675
asVInstructions Not Included
p5676
(lp5677
VComedy
p5678
aVDrama
p5679
asVToys in the Attic
p5680
(lp5681
VAnimation
p5682
aVFamily
p5683
aVFantasy
p5684
aVThriller
p5685
asVSource Code
p5686
(lp5687
VMystery
p5688
aVSci-Fi
p5689
aVThriller
p5690
asVI'm Not Jesus Mommy
p5691
(lp5692
VDrama
p5693
aVSci-Fi
p5694
aVThriller
p5695
asVFriends with Benefits
p5696
(lp5697
VComedy
p5698
aVRomance
p5699
asVMad Max: Fury Road
p5700
(lp5701
VAction
p5702
aVAdventure
p5703
aVSci-Fi
p5704
aVThriller
p5705
asVNot Fade Away
p5706
(lp5707
VDrama
p5708
asVSelf/Less
p5709
(lp5710
VMystery
p5711
aVSci-Fi
p5712
aVThriller
p5713
asVGone
p5714
(lp5715
VDrama
p5716
aVMystery
p5717
aVThriller
p5718
asVDaybreakers
p5719
(lp5720
VAction
p5721
aVFantasy
p5722
aVHorror
p5723
aVSci-Fi
p5724
aVThriller
p5725
asVThe Suicide Theory
p5726
(lp5727
VDrama
p5728
asVUnfinished Business
p5729
(lp5730
VComedy
p5731
asVTyler Perry's Temptation: Confessions of a Marriage Counselor
p5732
(lp5733
VDrama
p5734
aVThriller
p5735
asVA Zombie Invasion
p5736
(lp5737
VHorror
p5738
asVPenguins of Madagascar
p5739
(lp5740
VAnimation
p5741
aVAdventure
p5742
aVComedy
p5743
aVFamily
p5744
asVFocus (2015)
p5745
(lp5746
VComedy
p5747
aVCrime
p5748
aVDrama
p5749
aVRomance
p5750
asVLove is in the Air
p5751
(lp5752
VComedy
p5753
aVDrama
p5754
aVRomance
p5755
asVThe American
p5756
(lp5757
VCrime
p5758
aVDrama
p5759
aVThriller
p5760
asVBrotherly Love
p5761
(lp5762
VDrama
p5763
asVStrange Magic
p5764
(lp5765
VAnimation
p5766
aVFamily
p5767
aVFantasy
p5768
aVMusical
p5769
asVGangster Squad
p5770
(lp5771
VAction
p5772
aVCrime
p5773
aVDrama
p5774
aVThriller
p5775
asVSpeed-Dating
p5776
(lp5777
VComedy
p5778
asVThe Seven Five
p5779
(lp5780
VDocumentary
p5781
asVSubmarine
p5782
(lp5783
VComedy
p5784
aVDrama
p5785
aVRomance
p5786
asVProm
p5787
(lp5788
VComedy
p5789
aVDrama
p5790
asVMovie 43
p5791
(lp5792
VComedy
p5793
asVAfter.Life
p5794
(lp5795
VDrama
p5796
aVHorror
p5797
aVMystery
p5798
aVThriller
p5799
asVThe Lord of the Rings: The Two Towers (2011 re-release)
p5800
g59
sVWe Are Family
p5801
(lp5802
VComedy
p5803
aVDrama
p5804
aVFamily
p5805
asVYves Saint Laurent
p5806
(lp5807
VBiography
p5808
aVDrama
p5809
asVThe Art of Getting By
p5810
(lp5811
VDrama
p5812
aVRomance
p5813
asVThe November Man
p5814
(lp5815
VAction
p5816
aVCrime
p5817
aVThriller
p5818
asV'71
p5819
(lp5820
VAction
p5821
aVDrama
p5822
aVThriller
p5823
asVDon't Think I've Forgotten: Cambodia's Lost Rock and Roll
p5824
(lp5825
VDocumentary
p5826
aVMusic
p5827
asVMachete Kills
p5828
(lp5829
VAction
p5830
aVCrime
p5831
aVThriller
p5832
asV30 Beats
p5833
(lp5834
VComedy
p5835
aVRomance
p5836
asV127 Hours
p5837
(lp5838
VAdventure
p5839
aVBiography
p5840
aVDrama
p5841
aVThriller
p5842
asVLincoln
p5843
(lp5844
VBiography
p5845
aVDrama
p5846
aVHistory
p5847
aVWar
p5848
asVMoms' Night Out
p5849
(lp5850
VComedy
p5851
asVThe Future
p5852
(lp5853
VComedy
p5854
aVMusical
p5855
asVThe Descendants
p5856
(lp5857
VComedy
p5858
aVDrama
p5859
asVDumb and Dumber To
p5860
(lp5861
VComedy
p5862
asVJeff, Who Lives at Home
p5863
(lp5864
VComedy
p5865
aVDrama
p5866
asVFurry Vengeance
p5867
(lp5868
VComedy
p5869
aVFamily
p5870
asVThe Lords of Salem
p5871
(lp5872
VHorror
p5873
aVThriller
p5874
asVRomeo and Juliet (2013)
p5875
g203
sVFor Colored Girls
p5876
(lp5877
VDrama
p5878
asVThe Impossible
p5879
(lp5880
VDrama
p5881
aVThriller
p5882
asVFurious 7
p5883
(lp5884
VAction
p5885
aVCrime
p5886
aVThriller
p5887
asVFast Five
p5888
(lp5889
VAction
p5890
aVCrime
p5891
aVThriller
p5892
asVPirates of the Caribbean: On Stranger Tides
p5893
(lp5894
VAction
p5895
aVAdventure
p5896
aVFantasy
p5897
asVLe Jour Se Leve (2014 re-release)
p5898
g203
sVThe Intouchables (U.S.-only)
p5899
g59
sVA Thousand Words
p5900
(lp5901
VComedy
p5902
aVDrama
p5903
asVOne Chance
p5904
(lp5905
VBiography
p5906
aVComedy
p5907
aVDrama
p5908
aVMusic
p5909
asVLove, Rosie
p5910
(lp5911
VComedy
p5912
aVRomance
p5913
asVEnder's Game
p5914
(lp5915
VAction
p5916
aVSci-Fi
p5917
asVGet Him to the Greek
p5918
(lp5919
VComedy
p5920
aVMusic
p5921
asVBig Sur
p5922
(lp5923
VDrama
p5924
asVJurassic Park 3D
p5925
(lp5926
VAdventure
p5927
aVSci-Fi
p5928
aVThriller
p5929
asVCarrie (2013)
p5930
(lp5931
VDrama
p5932
aVHorror
p5933
asVPriest
p5934
(lp5935
VAction
p5936
aVFantasy
p5937
aVHorror
p5938
aVSci-Fi
p5939
aVThriller
p5940
asVBhaag Milkha Bhaag
p5941
(lp5942
VBiography
p5943
aVDrama
p5944
aVHistory
p5945
aVSport
p5946
asVDon Jon
p5947
(lp5948
VComedy
p5949
aVDrama
p5950
aVRomance
p5951
asVSon of God
p5952
(lp5953
VBiography
p5954
aVDrama
p5955
asVWe Steal Secrets: The Story of Wikileaks
p5956
(lp5957
VDocumentary
p5958
asVPawn
p5959
(lp5960
VCrime
p5961
aVMystery
p5962
aVThriller
p5963
asVPrisoners
p5964
(lp5965
VCrime
p5966
aVDrama
p5967
aVMystery
p5968
aVThriller
p5969
asVThe Imposter
p5970
(lp5971
VDocumentary
p5972
aVBiography
p5973
aVThriller
p5974
asVBaahubali: The Beginning
p5975
(lp5976
VAction
p5977
aVAdventure
p5978
aVHistory
p5979
aVWar
p5980
asVHayride 2
p5981
(lp5982
VAction
p5983
aVHorror
p5984
aVThriller
p5985
asVA Resurrection
p5986
(lp5987
VHorror
p5988
aVThriller
p5989
asVIce Age: Continental Drift
p5990
(lp5991
VAnimation
p5992
aVAdventure
p5993
aVComedy
p5994
aVFamily
p5995
asVSilent Night
p5996
(lp5997
VComedy
p5998
aVHorror
p5999
aVMystery
p6000
aVThriller
p6001
asVCyrus
p6002
(lp6003
VComedy
p6004
aVDrama
p6005
aVRomance
p6006
asVBranded
p6007
(lp6008
VDrama
p6009
aVFantasy
p6010
aVThriller
p6011
asVDivergent
p6012
(lp6013
VAdventure
p6014
aVSci-Fi
p6015
aVThriller
p6016
asVThe Rabbi's Cat
p6017
(lp6018
VAnimation
p6019
aVComedy
p6020
aVFantasy
p6021
asVCats & Dogs: The Revenge of Kitty Galore
p6022
(lp6023
VAction
p6024
aVComedy
p6025
aVFamily
p6026
aVFantasy
p6027
asV300: Rise of An Empire
p6028
(lp6029
VAction
p6030
aVDrama
p6031
aVFantasy
p6032
aVWar
p6033
asVDiary of a Country Priest (2011 re-release)
p6034
g59
sVRed Dawn (2012)
p6035
(lp6036
VAction
p6037
aVThriller
p6038
aVWar
p6039
asVJack the Giant Slayer
p6040
(lp6041
VAdventure
p6042
aVFantasy
p6043
asVSavages (2012)
p6044
(lp6045
VCrime
p6046
aVDrama
p6047
aVThriller
p6048
asVThe Stroller Strategy
p6049
(lp6050
VComedy
p6051
asVMagic Mike
p6052
(lp6053
VComedy
p6054
aVDrama
p6055
asVSympathy for Delicious
p6056
(lp6057
VDrama
p6058
asVDate Night
p6059
(lp6060
VComedy
p6061
aVCrime
p6062
aVRomance
p6063
aVThriller
p6064
asVSeven Psychopaths
p6065
(lp6066
VComedy
p6067
aVCrime
p6068
asVThe King's Speech
p6069
(lp6070
VBiography
p6071
aVDrama
p6072
aVHistory
p6073
asVThe Debt
p6074
(lp6075
VDrama
p6076
aVThriller
p6077
asVScary Movie 5
p6078
(lp6079
VComedy
p6080
asVThe Devil's Hand
p6081
(lp6082
VThriller
p6083
asVOctober Baby (2012)
p6084
(lp6085
VNews
p6086
aVSci-Fi
p6087
asVPassion
p6088
(lp6089
VDrama
p6090
asV30 Minutes or Less
p6091
(lp6092
VAction
p6093
aVComedy
p6094
aVCrime
p6095
asVPain and Gain
p6096
(lp6097
VReality-TV
p6098
asVThe Hangover Part III
p6099
(lp6100
VComedy
p6101
asVGoon
p6102
(lp6103
VComedy
p6104
aVSport
p6105
asVLawless
p6106
(lp6107
VCrime
p6108
aVDrama
p6109
asVInAPPropriate Comedy
p6110
(lp6111
VComedy
p6112
asVBeautiful Boy
p6113
(lp6114
VDrama
p6115
asVSound City
p6116
(lp6117
VDocumentary
p6118
aVMusic
p6119
asVThe Nut Job
p6120
(lp6121
VAnimation
p6122
aVAdventure
p6123
aVComedy
p6124
aVFamily
p6125
asVEvil Dead (2013)
p6126
(lp6127
VHorror
p6128
asVFree Angela and All Political Prisoners
p6129
(lp6130
VDocumentary
p6131
asVFaith of Our Fathers
p6132
(lp6133
VDrama
p6134
asVL.A. Slasher
p6135
(lp6136
VComedy
p6137
aVCrime
p6138
aVFantasy
p6139
aVHorror
p6140
aVThriller
p6141
asVFair Game (2010)
p6142
(lp6143
VBiography
p6144
aVDrama
p6145
aVThriller
p6146
asVAlice in Wonderland (2010)
p6147
(lp6148
VAdventure
p6149
aVFamily
p6150
aVFantasy
p6151
asVBreak Ke Baad
p6152
(lp6153
VComedy
p6154
aVDrama
p6155
aVRomance
p6156
asVThe Tillman Story
p6157
(lp6158
VDocumentary
p6159
aVBiography
p6160
aVMystery
p6161
aVWar
p6162
asVThe Conspirator
p6163
(lp6164
VCrime
p6165
aVDrama
p6166
aVHistory
p6167
asVThe Other Guys
p6168
(lp6169
VAction
p6170
aVComedy
p6171
aVCrime
p6172
asVThe Sapphires
p6173
(lp6174
VBiography
p6175
aVComedy
p6176
aVDrama
p6177
aVMusic
p6178
aVMusical
p6179
asVTrue Story
p6180
(lp6181
VDrama
p6182
aVMystery
p6183
aVThriller
p6184
asVUnfinished Song
p6185
(lp6186
VComedy
p6187
aVDrama
p6188
aVMusic
p6189
aVRomance
p6190
asVSummer Wars
p6191
(lp6192
VAnimation
p6193
aVAdventure
p6194
aVComedy
p6195
aVDrama
p6196
aVFamily
p6197
aVRomance
p6198
aVSci-Fi
p6199
asVTyler Perry's Madea's Witness Protection
p6200
(lp6201
VComedy
p6202
aVCrime
p6203
aVDrama
p6204
asVBrotherhood (2011)
p6205
(lp6206
VShort
p6207
aVCrime
p6208
aVDrama
p6209
aVThriller
p6210
asVAnnie (2014)
p6211
(lp6212
VComedy
p6213
aVDrama
p6214
aVFamily
p6215
aVMusical
p6216
asVWish I Was Here
p6217
(lp6218
VComedy
p6219
aVDrama
p6220
asVWalk of Shame
p6221
(lp6222
VComedy
p6223
asVThe Big Year
p6224
(lp6225
VComedy
p6226
asVCowboys & Aliens
p6227
(lp6228
VAction
p6229
aVSci-Fi
p6230
aVThriller
p6231
aVWestern
p6232
asVGringo Trails
p6233
(lp6234
VDocumentary
p6235
aVAdventure
p6236
aVDrama
p6237
aVHistory
p6238
asVHarry Potter and the Deathly Hallows Part 1
p6239
(lp6240
VAdventure
p6241
aVDrama
p6242
aVFantasy
p6243
aVMystery
p6244
asVHarry Potter and the Deathly Hallows Part 2
p6245
(lp6246
VAdventure
p6247
aVDrama
p6248
aVFantasy
p6249
aVMystery
p6250
asVAlphaville (2013 re-release)
p6251
g203
sVThe Switch
p6252
(lp6253
VComedy
p6254
aVCrime
p6255
asVMonsters, Inc. (3D)
p6256
(lp6257
VAnimation
p6258
aVAdventure
p6259
aVComedy
p6260
aVFamily
p6261
aVFantasy
p6262
asVThe Pirates! Band of Misfits
p6263
(lp6264
VAnimation
p6265
aVAdventure
p6266
aVComedy
p6267
aVFamily
p6268
asVGabrielle (2014)
p6269
(lp6270
VNews
p6271
asVJoyful Noise
p6272
(lp6273
VComedy
p6274
aVMusic
p6275
asVMosquita y Mari
p6276
(lp6277
VDrama
p6278
asVThe Kings of Summer
p6279
(lp6280
VAdventure
p6281
aVComedy
p6282
aVDrama
p6283
asVThe Grace Card
p6284
(lp6285
VDrama
p6286
asVSuper 8
p6287
(lp6288
VMystery
p6289
aVSci-Fi
p6290
aVThriller
p6291
asVThe Dark Knight (2012 re-release)
p6292
g59
sVRed Riding Hood
p6293
(lp6294
VFantasy
p6295
aVHorror
p6296
aVMystery
p6297
aVThriller
p6298
asVSingham
p6299
(lp6300
VAction
p6301
aVCrime
p6302
aVDrama
p6303
asVThe Connection
p6304
(lp6305
VAction
p6306
aVCrime
p6307
aVThriller
p6308
asVConviction
p6309
(lp6310
VCrime
p6311
aVDrama
p6312
aVThriller
p6313
asVDope
p6314
(lp6315
VComedy
p6316
aVCrime
p6317
aVDrama
p6318
asVThe Railway Man
p6319
(lp6320
VBiography
p6321
aVDrama
p6322
aVRomance
p6323
aVWar
p6324
asVDear White People
p6325
(lp6326
VComedy
p6327
aVDrama
p6328
asVAbraham Lincoln: Vampire Hunter
p6329
(lp6330
VAction
p6331
aVFantasy
p6332
aVHorror
p6333
aVThriller
p6334
asVInside Out
p6335
(lp6336
VAnimation
p6337
aVAdventure
p6338
aVComedy
p6339
aVDrama
p6340
aVFamily
p6341
aVFantasy
p6342
asVBaggage Claim
p6343
(lp6344
VComedy
p6345
asVContempt (2013 re-release)
p6346
g203
sVLong Shot: The Kevin Laue Story
p6347
(lp6348
VDocumentary
p6349
aVDrama
p6350
asVNeighbors
p6351
(lp6352
VComedy
p6353
asVDylan Dog: Dead of Night
p6354
(lp6355
VComedy
p6356
aVHorror
p6357
aVMystery
p6358
aVSci-Fi
p6359
aVThriller
p6360
asVAlbert Nobbs
p6361
(lp6362
VDrama
p6363
asVCrooked Arrows
p6364
(lp6365
VDrama
p6366
aVSport
p6367
asVTere Naal Love Ho Gaya
p6368
(lp6369
VComedy
p6370
aVRomance
p6371
asVErnest & Celestine
p6372
(lp6373
VAnimation
p6374
aVComedy
p6375
aVDrama
p6376
aVFamily
p6377
asVThe Secret Life of Walter Mitty
p6378
(lp6379
VAdventure
p6380
aVComedy
p6381
aVDrama
p6382
aVFantasy
p6383
asVChild 44
p6384
(lp6385
VDrama
p6386
aVThriller
p6387
asVLabios Rojos
p6388
(lp6389
VComedy
p6390
asVWhen the Game Stands Tall
p6391
(lp6392
VDrama
p6393
aVSport
p6394
asVDolphin Tale
p6395
(lp6396
VDrama
p6397
aVFamily
p6398
asVJesus Henry Christ
p6399
(lp6400
VComedy
p6401
asVThe Best of Me
p6402
(lp6403
VDrama
p6404
aVRomance
p6405
asVTracks (2014)
p6406
(lp6407
VShort
p6408
aVDrama
p6409
aVFamily
p6410
aVMystery
p6411
asVMadame Bovary
p6412
(lp6413
VDrama
p6414
asVHeaven Knows What
p6415
(lp6416
VDrama
p6417
asVRacing Dreams
p6418
(lp6419
VDocumentary
p6420
aVSport
p6421
asVTransformers: Age of Extinction
p6422
(lp6423
VAction
p6424
aVAdventure
p6425
aVSci-Fi
p6426
asVThe Bling Ring
p6427
(lp6428
VBiography
p6429
aVCrime
p6430
aVDrama
p6431
asVLike Crazy
p6432
(lp6433
VDrama
p6434
aVRomance
p6435
asVPaddington
p6436
(lp6437
VComedy
p6438
aVFamily
p6439
asVInception
p6440
(lp6441
VAction
p6442
aVMystery
p6443
aVSci-Fi
p6444
aVThriller
p6445
asVLe Joli Mai
p6446
(lp6447
VDocumentary
p6448
asVNew Year's Eve
p6449
(lp6450
VComedy
p6451
aVRomance
p6452
asVSeven Days in Utopia
p6453
(lp6454
VDrama
p6455
aVSport
p6456
asVThe Ghost Writer
p6457
(lp6458
VCrime
p6459
aVDrama
p6460
aVMystery
p6461
aVThriller
p6462
asVThe Film Critic
p6463
(lp6464
VComedy
p6465
aVDrama
p6466
aVRomance
p6467
asVVito Bonafacci
p6468
(lp6469
VDrama
p6470
asVArbitrage
p6471
(lp6472
VDrama
p6473
aVThriller
p6474
asVKung Fu Killer
p6475
(lp6476
VAction
p6477
aVThriller
p6478
asVBeyond the Reach
p6479
(lp6480
VThriller
p6481
asVThe Unknown Known
p6482
(lp6483
VDocumentary
p6484
asVHaywire
p6485
(lp6486
VAction
p6487
aVThriller
p6488
asVPiranha 3DD
p6489
(lp6490
VComedy
p6491
aVHorror
p6492
asVAmericons
p6493
(lp6494
VAction
p6495
aVBiography
p6496
aVCrime
p6497
aVDrama
p6498
asVThe Lion King (in 3D)
p6499
(lp6500
VComedy
p6501
asVThe Last Song
p6502
(lp6503
VDrama
p6504
aVRomance
p6505
asVMoneyball
p6506
(lp6507
VBiography
p6508
aVDrama
p6509
aVSport
p6510
asVTotal Recall (2012 re-release)
p6511
g59
sVWarrior
p6512
(lp6513
VDrama
p6514
aVSport
p6515
asVThe Losers
p6516
(lp6517
VAction
p6518
aVCrime
p6519
aVDrama
p6520
aVMystery
p6521
aVThriller
p6522
asVLimitless
p6523
(lp6524
VDrama
p6525
aVSci-Fi
p6526
aVThriller
p6527
asVTexas Killing Fields
p6528
(lp6529
VCrime
p6530
aVDrama
p6531
aVHistory
p6532
aVThriller
p6533
asVThe Guilt Trip
p6534
(lp6535
VComedy
p6536
aVDrama
p6537
asVBig Game
p6538
(lp6539
VAction
p6540
aVAdventure
p6541
asVSol LeWitt
p6542
(lp6543
VDocumentary
p6544
aVBiography
p6545
asVI'll See You In My Dreams
p6546
(lp6547
VComedy
p6548
aVDrama
p6549
asVRango
p6550
(lp6551
VAnimation
p6552
aVAdventure
p6553
aVComedy
p6554
aVFamily
p6555
aVWestern
p6556
asVGayby
p6557
(lp6558
VComedy
p6559
aVDrama
p6560
asVThe Sessions
p6561
(lp6562
VBiography
p6563
aVComedy
p6564
aVDrama
p6565
aVRomance
p6566
asVThe Decent One
p6567
(lp6568
VDocumentary
p6569
aVDrama
p6570
aVHistory
p6571
asVEverything Must Go
p6572
(lp6573
VComedy
p6574
aVDrama
p6575
asVHere and There
p6576
(lp6577
VDrama
p6578
asVLeap Year
p6579
(lp6580
VComedy
p6581
aVRomance
p6582
asVSalinger
p6583
(lp6584
VDocumentary
p6585
asVThe Fifth Estate
p6586
(lp6587
VBiography
p6588
aVDrama
p6589
aVThriller
p6590
asVMy Name is Khan
p6591
(lp6592
VDrama
p6593
aVRomance
p6594
aVThriller
p6595
asVTrance
p6596
(lp6597
VCrime
p6598
aVDrama
p6599
aVMystery
p6600
aVThriller
p6601
asVWinnie the Pooh
p6602
(lp6603
VAnimation
p6604
aVAdventure
p6605
aVComedy
p6606
aVFamily
p6607
aVMusical
p6608
asVValentine's Day
p6609
(lp6610
VComedy
p6611
aVRomance
p6612
asVI (2015)
p6613
(lp6614
VAction
p6615
aVRomance
p6616
aVThriller
p6617
asVBeastly
p6618
(lp6619
VDrama
p6620
aVFantasy
p6621
aVRomance
p6622
asVThe Apu Trilogy
p6623
g203
sVKiller Joe
p6624
(lp6625
VCrime
p6626
aVDrama
p6627
aVThriller
p6628
asVThe Book of Eli
p6629
(lp6630
VAction
p6631
aVAdventure
p6632
aVDrama
p6633
aVThriller
p6634
asVPawn Shop Chronicles
p6635
(lp6636
VAction
p6637
aVComedy
p6638
aVCrime
p6639
asVThe Boxtrolls
p6640
(lp6641
VAnimation
p6642
aVAdventure
p6643
aVComedy
p6644
aVFamily
p6645
aVFantasy
p6646
asVDiana
p6647
(lp6648
VBiography
p6649
aVDrama
p6650
aVRomance
p6651
asVTed
p6652
(lp6653
VComedy
p6654
aVFantasy
p6655
asVNon-Stop
p6656
(lp6657
VAction
p6658
aVMystery
p6659
aVThriller
p6660
asVLooper
p6661
(lp6662
VAction
p6663
aVCrime
p6664
aVSci-Fi
p6665
aVThriller
p6666
asVThe Devil's Violinist
p6667
(lp6668
VBiography
p6669
aVDrama
p6670
aVMusical
p6671
asVZero Dark Thirty
p6672
(lp6673
VDrama
p6674
aVHistory
p6675
aVThriller
p6676
asVBeyond the Mask
p6677
(lp6678
VAction
p6679
aVDrama
p6680
asVEasy A
p6681
(lp6682
VComedy
p6683
aVRomance
p6684
asVDon McKay
p6685
(lp6686
VDrama
p6687
aVMystery
p6688
aVThriller
p6689
asVJackass Presents: Bad Grandpa
p6690
(lp6691
VComedy
p6692
asVOde to My Father
p6693
(lp6694
VDrama
p6695
asVThe Man in the White Suit (2012 re-release)
p6696
g59
sVKick
p6697
(lp6698
VAction
p6699
aVComedy
p6700
aVRomance
p6701
aVThriller
p6702
asVAvengers: Age of Ultron
p6703
(lp6704
VAction
p6705
aVAdventure
p6706
aVSci-Fi
p6707
asV42
p6708
(lp6709
VBiography
p6710
aVDrama
p6711
aVSport
p6712
asVBrief Reunion
p6713
(lp6714
VDrama
p6715
asVThe Endless Summer (2014 re-release)
p6716
g203
sVThe Boy Next Door
p6717
(lp6718
VThriller
p6719
asVLarry Crowne
p6720
(lp6721
VComedy
p6722
aVDrama
p6723
aVRomance
p6724
asVThe Homesman
p6725
(lp6726
VDrama
p6727
aVWestern
p6728
asVLast Vegas
p6729
(lp6730
VComedy
p6731
asVThe Rite
p6732
(lp6733
VDrama
p6734
aVHorror
p6735
aVMystery
p6736
aVThriller
p6737
asVThe Pyramid
p6738
(lp6739
VHorror
p6740
aVThriller
p6741
asVLet Me In
p6742
(lp6743
VDrama
p6744
aVHorror
p6745
aVMystery
p6746
asVGuardians of the Galaxy
p6747
(lp6748
VAction
p6749
aVAdventure
p6750
aVSci-Fi
p6751
asVThe Host (2013)
p6752
(lp6753
VAdventure
p6754
aVRomance
p6755
aVSci-Fi
p6756
asVMr. Peabody & Sherman
p6757
(lp6758
VAnimation
p6759
aVAdventure
p6760
aVComedy
p6761
aVFamily
p6762
aVSci-Fi
p6763
asVDallas Buyers Club
p6764
(lp6765
VBiography
p6766
aVDrama
p6767
as.